
obj/net/ns:     file format elf32-i386


Disassembly of section .text:

00800020 <_start>:
// starts us running when we are initially loaded into a new environment.
.text
.globl _start
_start:
	// See if we were started with arguments on the stack
	cmpl $USTACKTOP, %esp
  800020:	81 fc 00 e0 bf ee    	cmp    $0xeebfe000,%esp
	jne args_exist
  800026:	75 04                	jne    80002c <args_exist>

	// If not, push dummy argc/argv arguments.
	// This happens when we are loaded by the kernel,
	// because the kernel does not know about passing arguments.
	pushl $0
  800028:	6a 00                	push   $0x0
	pushl $0
  80002a:	6a 00                	push   $0x0

0080002c <args_exist>:

args_exist:
	call libmain
  80002c:	e8 df ed 00 00       	call   80ee10 <libmain>
1:	jmp 1b
  800031:	eb fe                	jmp    800031 <args_exist+0x5>
	...

00800034 <put_buffer>:

	return va;
}

static void
put_buffer(void *va) {
  800034:	55                   	push   %ebp
  800035:	89 e5                	mov    %esp,%ebp
	int i = ((uint32_t)va - REQVA) / PGSIZE;
  800037:	2d 00 b0 fe 0f       	sub    $0xffeb000,%eax
  80003c:	c1 e8 0c             	shr    $0xc,%eax
	buse[i] = 0;
  80003f:	c6 80 28 60 81 00 00 	movb   $0x0,0x816028(%eax)
}
  800046:	5d                   	pop    %ebp
  800047:	c3                   	ret    

00800048 <serve_thread>:
	uint32_t whom;
	union Nsipc *req;
};

static void
serve_thread(uint32_t a) {
  800048:	55                   	push   %ebp
  800049:	89 e5                	mov    %esp,%ebp
  80004b:	57                   	push   %edi
  80004c:	56                   	push   %esi
  80004d:	53                   	push   %ebx
  80004e:	81 ec 8c 00 00 00    	sub    $0x8c,%esp
  800054:	8b 5d 08             	mov    0x8(%ebp),%ebx
	struct st_args *args = (struct st_args *)a;
	union Nsipc *req = args->req;
  800057:	8b 73 08             	mov    0x8(%ebx),%esi
	int r;

	switch (args->reqno) {
  80005a:	83 3b 0a             	cmpl   $0xa,(%ebx)
  80005d:	0f 87 3a 01 00 00    	ja     80019d <serve_thread+0x155>
  800063:	8b 03                	mov    (%ebx),%eax
  800065:	ff 24 85 e0 1a 81 00 	jmp    *0x811ae0(,%eax,4)
	case NSREQ_ACCEPT:
	{
		struct Nsret_accept ret;
		ret.ret_addrlen = req->accept.req_addrlen;
  80006c:	8b 46 04             	mov    0x4(%esi),%eax
  80006f:	89 45 94             	mov    %eax,-0x6c(%ebp)
		r = lwip_accept(req->accept.req_s, &ret.ret_addr,
  800072:	8d 45 94             	lea    -0x6c(%ebp),%eax
  800075:	89 44 24 08          	mov    %eax,0x8(%esp)
  800079:	8d 45 84             	lea    -0x7c(%ebp),%eax
  80007c:	89 44 24 04          	mov    %eax,0x4(%esp)
  800080:	8b 06                	mov    (%esi),%eax
  800082:	89 04 24             	mov    %eax,(%esp)
  800085:	e8 c0 0f 00 00       	call   80104a <lwip_accept>
  80008a:	89 c7                	mov    %eax,%edi
				&ret.ret_addrlen);
		memmove(req, &ret, sizeof ret);
  80008c:	c7 44 24 08 14 00 00 	movl   $0x14,0x8(%esp)
  800093:	00 
  800094:	8d 45 84             	lea    -0x7c(%ebp),%eax
  800097:	89 44 24 04          	mov    %eax,0x4(%esp)
  80009b:	89 34 24             	mov    %esi,(%esp)
  80009e:	e8 f9 f5 00 00       	call   80f69c <memmove>
		break;
  8000a3:	e9 13 01 00 00       	jmp    8001bb <serve_thread+0x173>
	}
	case NSREQ_BIND:
		r = lwip_bind(req->bind.req_s, &req->bind.req_name,
  8000a8:	8b 46 14             	mov    0x14(%esi),%eax
  8000ab:	89 44 24 08          	mov    %eax,0x8(%esp)
  8000af:	8d 46 04             	lea    0x4(%esi),%eax
  8000b2:	89 44 24 04          	mov    %eax,0x4(%esp)
  8000b6:	8b 06                	mov    (%esi),%eax
  8000b8:	89 04 24             	mov    %eax,(%esp)
  8000bb:	e8 45 11 00 00       	call   801205 <lwip_bind>
  8000c0:	89 c7                	mov    %eax,%edi
			      req->bind.req_namelen);
		break;
  8000c2:	e9 f4 00 00 00       	jmp    8001bb <serve_thread+0x173>
	case NSREQ_SHUTDOWN:
		r = lwip_shutdown(req->shutdown.req_s, req->shutdown.req_how);
  8000c7:	8b 46 04             	mov    0x4(%esi),%eax
  8000ca:	89 44 24 04          	mov    %eax,0x4(%esp)
  8000ce:	8b 06                	mov    (%esi),%eax
  8000d0:	89 04 24             	mov    %eax,(%esp)
  8000d3:	e8 5f 1d 00 00       	call   801e37 <lwip_shutdown>
  8000d8:	89 c7                	mov    %eax,%edi
		break;
  8000da:	e9 dc 00 00 00       	jmp    8001bb <serve_thread+0x173>
	case NSREQ_CLOSE:
		r = lwip_close(req->close.req_s);
  8000df:	8b 06                	mov    (%esi),%eax
  8000e1:	89 04 24             	mov    %eax,(%esp)
  8000e4:	e8 da 11 00 00       	call   8012c3 <lwip_close>
  8000e9:	89 c7                	mov    %eax,%edi
		break;
  8000eb:	e9 cb 00 00 00       	jmp    8001bb <serve_thread+0x173>
	case NSREQ_CONNECT:
		r = lwip_connect(req->connect.req_s, &req->connect.req_name,
  8000f0:	8b 46 14             	mov    0x14(%esi),%eax
  8000f3:	89 44 24 08          	mov    %eax,0x8(%esp)
  8000f7:	8d 46 04             	lea    0x4(%esi),%eax
  8000fa:	89 44 24 04          	mov    %eax,0x4(%esp)
  8000fe:	8b 06                	mov    (%esi),%eax
  800100:	89 04 24             	mov    %eax,(%esp)
  800103:	e8 39 12 00 00       	call   801341 <lwip_connect>
  800108:	89 c7                	mov    %eax,%edi
				 req->connect.req_namelen);
		break;
  80010a:	e9 ac 00 00 00       	jmp    8001bb <serve_thread+0x173>
	case NSREQ_LISTEN:
		r = lwip_listen(req->listen.req_s, req->listen.req_backlog);
  80010f:	8b 46 04             	mov    0x4(%esi),%eax
  800112:	89 44 24 04          	mov    %eax,0x4(%esp)
  800116:	8b 06                	mov    (%esi),%eax
  800118:	89 04 24             	mov    %eax,(%esp)
  80011b:	e8 df 12 00 00       	call   8013ff <lwip_listen>
  800120:	89 c7                	mov    %eax,%edi
		break;
  800122:	e9 94 00 00 00       	jmp    8001bb <serve_thread+0x173>
	case NSREQ_RECV:
		// Note that we read the request fields before we
		// overwrite it with the response data.
		r = lwip_recv(req->recv.req_s, req->recvRet.ret_buf,
  800127:	8b 46 08             	mov    0x8(%esi),%eax
  80012a:	89 44 24 0c          	mov    %eax,0xc(%esp)
  80012e:	8b 46 04             	mov    0x4(%esi),%eax
  800131:	89 44 24 08          	mov    %eax,0x8(%esp)
  800135:	89 74 24 04          	mov    %esi,0x4(%esp)
  800139:	8b 06                	mov    (%esi),%eax
  80013b:	89 04 24             	mov    %eax,(%esp)
  80013e:	e8 e8 15 00 00       	call   80172b <lwip_recv>
  800143:	89 c7                	mov    %eax,%edi
			      req->recv.req_len, req->recv.req_flags);
		break;
  800145:	eb 74                	jmp    8001bb <serve_thread+0x173>
	case NSREQ_SEND:
		r = lwip_send(req->send.req_s, &req->send.req_buf,
  800147:	8b 46 08             	mov    0x8(%esi),%eax
  80014a:	89 44 24 0c          	mov    %eax,0xc(%esp)
  80014e:	8b 46 04             	mov    0x4(%esi),%eax
  800151:	89 44 24 08          	mov    %eax,0x8(%esp)
  800155:	8d 46 0c             	lea    0xc(%esi),%eax
  800158:	89 44 24 04          	mov    %eax,0x4(%esp)
  80015c:	8b 06                	mov    (%esi),%eax
  80015e:	89 04 24             	mov    %eax,(%esp)
  800161:	e8 76 17 00 00       	call   8018dc <lwip_send>
  800166:	89 c7                	mov    %eax,%edi
			      req->send.req_size, req->send.req_flags);
		break;
  800168:	eb 51                	jmp    8001bb <serve_thread+0x173>
	case NSREQ_SOCKET:
		r = lwip_socket(req->socket.req_domain, req->socket.req_type,
  80016a:	8b 46 08             	mov    0x8(%esi),%eax
  80016d:	89 44 24 08          	mov    %eax,0x8(%esp)
  800171:	8b 46 04             	mov    0x4(%esi),%eax
  800174:	89 44 24 04          	mov    %eax,0x4(%esp)
  800178:	8b 06                	mov    (%esi),%eax
  80017a:	89 04 24             	mov    %eax,(%esp)
  80017d:	e8 10 18 00 00       	call   801992 <lwip_socket>
  800182:	89 c7                	mov    %eax,%edi
				req->socket.req_protocol);
		break;
  800184:	eb 35                	jmp    8001bb <serve_thread+0x173>
	case NSREQ_INPUT:
		jif_input(&nif, (void *)&req->pkt);
  800186:	89 74 24 04          	mov    %esi,0x4(%esp)
  80018a:	c7 04 24 40 c2 b3 00 	movl   $0xb3c240,(%esp)
  800191:	e8 e9 b0 00 00       	call   80b27f <jif_input>
		r = 0;
  800196:	bf 00 00 00 00       	mov    $0x0,%edi
		break;
  80019b:	eb 4c                	jmp    8001e9 <serve_thread+0x1a1>
	default:
		cprintf("Invalid request code %d from %08x\n", args->whom, args->req);
  80019d:	89 74 24 08          	mov    %esi,0x8(%esp)
  8001a1:	8b 43 04             	mov    0x4(%ebx),%eax
  8001a4:	89 44 24 04          	mov    %eax,0x4(%esp)
  8001a8:	c7 04 24 00 19 81 00 	movl   $0x811900,(%esp)
  8001af:	e8 c4 ed 00 00       	call   80ef78 <cprintf>
		r = -E_INVAL;
  8001b4:	bf fd ff ff ff       	mov    $0xfffffffd,%edi
		break;
  8001b9:	eb 2e                	jmp    8001e9 <serve_thread+0x1a1>
	}

	if (r == -1) {
  8001bb:	83 ff ff             	cmp    $0xffffffff,%edi
  8001be:	75 29                	jne    8001e9 <serve_thread+0x1a1>
		char buf[100];
		snprintf(buf, sizeof buf, "ns req type %d", args->reqno);
  8001c0:	8b 03                	mov    (%ebx),%eax
  8001c2:	89 44 24 0c          	mov    %eax,0xc(%esp)
  8001c6:	c7 44 24 08 35 1a 81 	movl   $0x811a35,0x8(%esp)
  8001cd:	00 
  8001ce:	c7 44 24 04 64 00 00 	movl   $0x64,0x4(%esp)
  8001d5:	00 
  8001d6:	8d 75 84             	lea    -0x7c(%ebp),%esi
  8001d9:	89 34 24             	mov    %esi,(%esp)
  8001dc:	e8 e4 f2 00 00       	call   80f4c5 <snprintf>
		perror(buf);
  8001e1:	89 34 24             	mov    %esi,(%esp)
  8001e4:	e8 4e af 00 00       	call   80b137 <perror>
	}

	if (args->reqno != NSREQ_INPUT)
  8001e9:	83 3b 0a             	cmpl   $0xa,(%ebx)
  8001ec:	74 1f                	je     80020d <serve_thread+0x1c5>
		ipc_send(args->whom, r, 0, 0);
  8001ee:	c7 44 24 0c 00 00 00 	movl   $0x0,0xc(%esp)
  8001f5:	00 
  8001f6:	c7 44 24 08 00 00 00 	movl   $0x0,0x8(%esp)
  8001fd:	00 
  8001fe:	89 7c 24 04          	mov    %edi,0x4(%esp)
  800202:	8b 43 04             	mov    0x4(%ebx),%eax
  800205:	89 04 24             	mov    %eax,(%esp)
  800208:	e8 ff fd 00 00       	call   81000c <ipc_send>

	put_buffer(args->req);
  80020d:	8b 43 08             	mov    0x8(%ebx),%eax
  800210:	e8 1f fe ff ff       	call   800034 <put_buffer>
	sys_page_unmap(0, (void*) args->req);
  800215:	8b 43 08             	mov    0x8(%ebx),%eax
  800218:	89 44 24 04          	mov    %eax,0x4(%esp)
  80021c:	c7 04 24 00 00 00 00 	movl   $0x0,(%esp)
  800223:	e8 94 f7 00 00       	call   80f9bc <sys_page_unmap>
	free(args);
  800228:	89 1c 24             	mov    %ebx,(%esp)
  80022b:	e8 30 0c 01 00       	call   810e60 <free>
}
  800230:	81 c4 8c 00 00 00    	add    $0x8c,%esp
  800236:	5b                   	pop    %ebx
  800237:	5e                   	pop    %esi
  800238:	5f                   	pop    %edi
  800239:	5d                   	pop    %ebp
  80023a:	c3                   	ret    

0080023b <net_timer>:
	netif_set_up(nif);
}

static void __attribute__((noreturn))
net_timer(uint32_t arg)
{
  80023b:	55                   	push   %ebp
  80023c:	89 e5                	mov    %esp,%ebp
  80023e:	56                   	push   %esi
  80023f:	53                   	push   %ebx
  800240:	83 ec 10             	sub    $0x10,%esp
	struct timer_thread *t = (struct timer_thread *) arg;
  800243:	8b 5d 08             	mov    0x8(%ebp),%ebx

	for (;;) {
		uint32_t cur = sys_time_msec();
  800246:	e8 32 f9 00 00       	call   80fb7d <sys_time_msec>
  80024b:	89 c6                	mov    %eax,%esi

		lwip_core_lock();
  80024d:	e8 fa aa 00 00       	call   80ad4c <lwip_core_lock>
		t->func();
  800252:	ff 53 04             	call   *0x4(%ebx)
		lwip_core_unlock();
  800255:	e8 f7 aa 00 00       	call   80ad51 <lwip_core_unlock>

		thread_wait(0, 0, cur + t->msec);
  80025a:	03 33                	add    (%ebx),%esi
  80025c:	89 74 24 08          	mov    %esi,0x8(%esp)
  800260:	c7 44 24 04 00 00 00 	movl   $0x0,0x4(%esp)
  800267:	00 
  800268:	c7 04 24 00 00 00 00 	movl   $0x0,(%esp)
  80026f:	e8 f8 ad 00 00       	call   80b06c <thread_wait>
  800274:	eb d0                	jmp    800246 <net_timer+0xb>

00800276 <start_timer>:
	}
}

static void
start_timer(struct timer_thread *t, void (*func)(void), const char *name, int msec)
{
  800276:	55                   	push   %ebp
  800277:	89 e5                	mov    %esp,%ebp
  800279:	53                   	push   %ebx
  80027a:	83 ec 14             	sub    $0x14,%esp
	t->msec = msec;
  80027d:	8b 5d 08             	mov    0x8(%ebp),%ebx
  800280:	89 18                	mov    %ebx,(%eax)
	t->func = func;
  800282:	89 50 04             	mov    %edx,0x4(%eax)
	t->name = name;
  800285:	89 48 08             	mov    %ecx,0x8(%eax)
	int r = thread_create(0, name, &net_timer, (uint32_t)t);
  800288:	89 44 24 0c          	mov    %eax,0xc(%esp)
  80028c:	c7 44 24 08 3b 02 80 	movl   $0x80023b,0x8(%esp)
  800293:	00 
  800294:	89 4c 24 04          	mov    %ecx,0x4(%esp)
  800298:	c7 04 24 00 00 00 00 	movl   $0x0,(%esp)
  80029f:	e8 4d ab 00 00       	call   80adf1 <thread_create>
	if (r < 0)
  8002a4:	85 c0                	test   %eax,%eax
  8002a6:	79 28                	jns    8002d0 <start_timer+0x5a>
		panic("cannot create timer thread: %s", e2s(r));
  8002a8:	89 04 24             	mov    %eax,(%esp)
  8002ab:	e8 78 ae 00 00       	call   80b128 <e2s>
  8002b0:	89 44 24 0c          	mov    %eax,0xc(%esp)
  8002b4:	c7 44 24 08 24 19 81 	movl   $0x811924,0x8(%esp)
  8002bb:	00 
  8002bc:	c7 44 24 04 7a 00 00 	movl   $0x7a,0x4(%esp)
  8002c3:	00 
  8002c4:	c7 04 24 44 1a 81 00 	movl   $0x811a44,(%esp)
  8002cb:	e8 b0 eb 00 00       	call   80ee80 <_panic>
}
  8002d0:	83 c4 14             	add    $0x14,%esp
  8002d3:	5b                   	pop    %ebx
  8002d4:	5d                   	pop    %ebp
  8002d5:	c3                   	ret    

008002d6 <tcpip_init_done>:

static void
tcpip_init_done(void *arg)
{
  8002d6:	55                   	push   %ebp
  8002d7:	89 e5                	mov    %esp,%ebp
  8002d9:	83 ec 18             	sub    $0x18,%esp
  8002dc:	8b 45 08             	mov    0x8(%ebp),%eax
	uint32_t *done = arg;
	*done = 1;
  8002df:	c7 00 01 00 00 00    	movl   $0x1,(%eax)
	thread_wakeup(done);
  8002e5:	89 04 24             	mov    %eax,(%esp)
  8002e8:	e8 9a aa 00 00       	call   80ad87 <thread_wakeup>
}
  8002ed:	c9                   	leave  
  8002ee:	c3                   	ret    

008002ef <serve_init>:

void
serve_init(uint32_t ipaddr, uint32_t netmask, uint32_t gw)
{
  8002ef:	55                   	push   %ebp
  8002f0:	89 e5                	mov    %esp,%ebp
  8002f2:	56                   	push   %esi
  8002f3:	53                   	push   %ebx
  8002f4:	83 ec 30             	sub    $0x30,%esp
  8002f7:	8b 75 08             	mov    0x8(%ebp),%esi
	int r;
	lwip_core_lock();
  8002fa:	e8 4d aa 00 00       	call   80ad4c <lwip_core_lock>

	uint32_t done = 0;
  8002ff:	c7 45 f4 00 00 00 00 	movl   $0x0,-0xc(%ebp)
	tcpip_init(&tcpip_init_done, &done);
  800306:	8d 5d f4             	lea    -0xc(%ebp),%ebx
  800309:	89 5c 24 04          	mov    %ebx,0x4(%esp)
  80030d:	c7 04 24 d6 02 80 00 	movl   $0x8002d6,(%esp)
  800314:	e8 fc 23 00 00       	call   802715 <tcpip_init>
	lwip_core_unlock();
  800319:	e8 33 aa 00 00       	call   80ad51 <lwip_core_unlock>
	thread_wait(&done, 0, (uint32_t)~0);
  80031e:	c7 44 24 08 ff ff ff 	movl   $0xffffffff,0x8(%esp)
  800325:	ff 
  800326:	c7 44 24 04 00 00 00 	movl   $0x0,0x4(%esp)
  80032d:	00 
  80032e:	89 1c 24             	mov    %ebx,(%esp)
  800331:	e8 36 ad 00 00       	call   80b06c <thread_wait>
	lwip_core_lock();
  800336:	e8 11 aa 00 00       	call   80ad4c <lwip_core_lock>
static void
lwip_init(struct netif *nif, void *if_state,
	  uint32_t init_addr, uint32_t init_mask, uint32_t init_gw)
{
	struct ip_addr ipaddr, netmask, gateway;
	ipaddr.addr  = init_addr;
  80033b:	89 75 e8             	mov    %esi,-0x18(%ebp)
	netmask.addr = init_mask;
  80033e:	8b 45 0c             	mov    0xc(%ebp),%eax
  800341:	89 45 ec             	mov    %eax,-0x14(%ebp)
	gateway.addr = init_gw;
  800344:	8b 45 10             	mov    0x10(%ebp),%eax
  800347:	89 45 f0             	mov    %eax,-0x10(%ebp)

	if (0 == netif_add(nif, &ipaddr, &netmask, &gateway,
  80034a:	c7 44 24 18 33 6a 80 	movl   $0x806a33,0x18(%esp)
  800351:	00 
  800352:	c7 44 24 14 87 b3 80 	movl   $0x80b387,0x14(%esp)
  800359:	00 
  80035a:	c7 44 24 10 00 60 81 	movl   $0x816000,0x10(%esp)
  800361:	00 
  800362:	8d 45 f0             	lea    -0x10(%ebp),%eax
  800365:	89 44 24 0c          	mov    %eax,0xc(%esp)
  800369:	8d 45 ec             	lea    -0x14(%ebp),%eax
  80036c:	89 44 24 08          	mov    %eax,0x8(%esp)
  800370:	8d 45 e8             	lea    -0x18(%ebp),%eax
  800373:	89 44 24 04          	mov    %eax,0x4(%esp)
  800377:	c7 04 24 40 c2 b3 00 	movl   $0xb3c240,(%esp)
  80037e:	e8 b2 47 00 00       	call   804b35 <netif_add>
  800383:	85 c0                	test   %eax,%eax
  800385:	75 1c                	jne    8003a3 <serve_init+0xb4>
			   if_state,
			   jif_init,
			   ip_input))
		panic("lwip_init: error in netif_add\n");
  800387:	c7 44 24 08 44 19 81 	movl   $0x811944,0x8(%esp)
  80038e:	00 
  80038f:	c7 44 24 04 5c 00 00 	movl   $0x5c,0x4(%esp)
  800396:	00 
  800397:	c7 04 24 44 1a 81 00 	movl   $0x811a44,(%esp)
  80039e:	e8 dd ea 00 00       	call   80ee80 <_panic>

	netif_set_default(nif);
  8003a3:	c7 04 24 40 c2 b3 00 	movl   $0xb3c240,(%esp)
  8003aa:	e8 0d 48 00 00       	call   804bbc <netif_set_default>
	netif_set_up(nif);
  8003af:	c7 04 24 40 c2 b3 00 	movl   $0xb3c240,(%esp)
  8003b6:	e8 57 48 00 00       	call   804c12 <netif_set_up>
	thread_wait(&done, 0, (uint32_t)~0);
	lwip_core_lock();

	lwip_init(&nif, &output_envid, ipaddr, netmask, gw);

	start_timer(&t_arp, &etharp_tmr, "arp timer", ARP_TMR_INTERVAL);
  8003bb:	c7 04 24 88 13 00 00 	movl   $0x1388,(%esp)
  8003c2:	b9 4f 1a 81 00       	mov    $0x811a4f,%ecx
  8003c7:	ba 91 9b 80 00       	mov    $0x809b91,%edx
  8003cc:	b8 04 60 81 00       	mov    $0x816004,%eax
  8003d1:	e8 a0 fe ff ff       	call   800276 <start_timer>
	start_timer(&t_tcpf, &tcp_fasttmr, "tcp f timer", TCP_FAST_INTERVAL);
  8003d6:	c7 04 24 fa 00 00 00 	movl   $0xfa,(%esp)
  8003dd:	b9 59 1a 81 00       	mov    $0x811a59,%ecx
  8003e2:	ba 4c 5c 80 00       	mov    $0x805c4c,%edx
  8003e7:	b8 10 60 81 00       	mov    $0x816010,%eax
  8003ec:	e8 85 fe ff ff       	call   800276 <start_timer>
	start_timer(&t_tcps, &tcp_slowtmr, "tcp s timer", TCP_SLOW_INTERVAL);
  8003f1:	c7 04 24 f4 01 00 00 	movl   $0x1f4,(%esp)
  8003f8:	b9 65 1a 81 00       	mov    $0x811a65,%ecx
  8003fd:	ba 77 60 80 00       	mov    $0x806077,%edx
  800402:	b8 1c 60 81 00       	mov    $0x81601c,%eax
  800407:	e8 6a fe ff ff       	call   800276 <start_timer>

	struct in_addr ia = {ipaddr};
	cprintf("ns: %02x:%02x:%02x:%02x:%02x:%02x"
  80040c:	89 34 24             	mov    %esi,(%esp)
  80040f:	e8 a0 77 00 00       	call   807bb4 <inet_ntoa>
  800414:	89 44 24 1c          	mov    %eax,0x1c(%esp)
  800418:	0f b6 05 6a c2 b3 00 	movzbl 0xb3c26a,%eax
  80041f:	89 44 24 18          	mov    %eax,0x18(%esp)
  800423:	0f b6 05 69 c2 b3 00 	movzbl 0xb3c269,%eax
  80042a:	89 44 24 14          	mov    %eax,0x14(%esp)
  80042e:	0f b6 05 68 c2 b3 00 	movzbl 0xb3c268,%eax
  800435:	89 44 24 10          	mov    %eax,0x10(%esp)
  800439:	0f b6 05 67 c2 b3 00 	movzbl 0xb3c267,%eax
  800440:	89 44 24 0c          	mov    %eax,0xc(%esp)
  800444:	0f b6 05 66 c2 b3 00 	movzbl 0xb3c266,%eax
  80044b:	89 44 24 08          	mov    %eax,0x8(%esp)
  80044f:	0f b6 05 65 c2 b3 00 	movzbl 0xb3c265,%eax
  800456:	89 44 24 04          	mov    %eax,0x4(%esp)
  80045a:	c7 04 24 64 19 81 00 	movl   $0x811964,(%esp)
  800461:	e8 12 eb 00 00       	call   80ef78 <cprintf>
		" bound to static IP %s\n",
		nif.hwaddr[0], nif.hwaddr[1], nif.hwaddr[2],
		nif.hwaddr[3], nif.hwaddr[4], nif.hwaddr[5],
		inet_ntoa(ia));

	lwip_core_unlock();
  800466:	e8 e6 a8 00 00       	call   80ad51 <lwip_core_unlock>

	cprintf("NS: TCP/IP initialized.\n");
  80046b:	c7 04 24 71 1a 81 00 	movl   $0x811a71,(%esp)
  800472:	e8 01 eb 00 00       	call   80ef78 <cprintf>
}
  800477:	83 c4 30             	add    $0x30,%esp
  80047a:	5b                   	pop    %ebx
  80047b:	5e                   	pop    %esi
  80047c:	5d                   	pop    %ebp
  80047d:	c3                   	ret    

0080047e <serve>:
	sys_page_unmap(0, (void*) args->req);
	free(args);
}

void
serve(void) {
  80047e:	55                   	push   %ebp
  80047f:	89 e5                	mov    %esp,%ebp
  800481:	57                   	push   %edi
  800482:	56                   	push   %esi
  800483:	53                   	push   %ebx
  800484:	83 ec 3c             	sub    $0x3c,%esp

	while (1) {
		// ipc_recv will block the entire process, so we flush
		// all pending work from other threads.  We limit the
		// number of yields in case there's a rogue thread.
		for (i = 0; thread_wakeups_pending() && i < 32; ++i)
  800487:	bb 00 00 00 00       	mov    $0x0,%ebx
			thread_yield();

		perm = 0;
		va = get_buffer();
		reqno = ipc_recv((int32_t *) &whom, (void *) va, &perm);
  80048c:	8d 7d e0             	lea    -0x20(%ebp),%edi
  80048f:	eb 06                	jmp    800497 <serve+0x19>
	while (1) {
		// ipc_recv will block the entire process, so we flush
		// all pending work from other threads.  We limit the
		// number of yields in case there's a rogue thread.
		for (i = 0; thread_wakeups_pending() && i < 32; ++i)
			thread_yield();
  800491:	e8 a7 aa 00 00       	call   80af3d <thread_yield>

	while (1) {
		// ipc_recv will block the entire process, so we flush
		// all pending work from other threads.  We limit the
		// number of yields in case there's a rogue thread.
		for (i = 0; thread_wakeups_pending() && i < 32; ++i)
  800496:	43                   	inc    %ebx
  800497:	e8 0a a9 00 00       	call   80ada6 <thread_wakeups_pending>
  80049c:	85 c0                	test   %eax,%eax
  80049e:	74 05                	je     8004a5 <serve+0x27>
  8004a0:	83 fb 1f             	cmp    $0x1f,%ebx
  8004a3:	7e ec                	jle    800491 <serve+0x13>
			thread_yield();

		perm = 0;
  8004a5:	c7 45 e0 00 00 00 00 	movl   $0x0,-0x20(%ebp)
static void *
get_buffer(void) {
	void *va;

	int i;
	for (i = 0; i < QUEUE_SIZE; i++)
  8004ac:	b8 00 00 00 00       	mov    $0x0,%eax
		if (!buse[i]) break;
  8004b1:	80 b8 28 60 81 00 00 	cmpb   $0x0,0x816028(%eax)
  8004b8:	74 08                	je     8004c2 <serve+0x44>
static void *
get_buffer(void) {
	void *va;

	int i;
	for (i = 0; i < QUEUE_SIZE; i++)
  8004ba:	40                   	inc    %eax
  8004bb:	83 f8 14             	cmp    $0x14,%eax
  8004be:	75 f1                	jne    8004b1 <serve+0x33>
  8004c0:	eb 05                	jmp    8004c7 <serve+0x49>
		if (!buse[i]) break;

	if (i == QUEUE_SIZE) {
  8004c2:	83 f8 14             	cmp    $0x14,%eax
  8004c5:	75 1c                	jne    8004e3 <serve+0x65>
		panic("NS: buffer overflow");
  8004c7:	c7 44 24 08 8a 1a 81 	movl   $0x811a8a,0x8(%esp)
  8004ce:	00 
  8004cf:	c7 44 24 04 3f 00 00 	movl   $0x3f,0x4(%esp)
  8004d6:	00 
  8004d7:	c7 04 24 44 1a 81 00 	movl   $0x811a44,(%esp)
  8004de:	e8 9d e9 00 00       	call   80ee80 <_panic>
		return 0;
	}

	va = (void *)(REQVA + i * PGSIZE);
  8004e3:	8d b0 eb ff 00 00    	lea    0xffeb(%eax),%esi
  8004e9:	c1 e6 0c             	shl    $0xc,%esi
	buse[i] = 1;
  8004ec:	c6 80 28 60 81 00 01 	movb   $0x1,0x816028(%eax)
		for (i = 0; thread_wakeups_pending() && i < 32; ++i)
			thread_yield();

		perm = 0;
		va = get_buffer();
		reqno = ipc_recv((int32_t *) &whom, (void *) va, &perm);
  8004f3:	89 7c 24 08          	mov    %edi,0x8(%esp)
  8004f7:	89 74 24 04          	mov    %esi,0x4(%esp)
  8004fb:	8d 45 e4             	lea    -0x1c(%ebp),%eax
  8004fe:	89 04 24             	mov    %eax,(%esp)
  800501:	e8 96 fa 00 00       	call   80ff9c <ipc_recv>
  800506:	89 c3                	mov    %eax,%ebx
		if (debug) {
			cprintf("ns req %d from %08x\n", reqno, whom);
		}

		// first take care of requests that do not contain an argument page
		if (reqno == NSREQ_TIMER) {
  800508:	83 f8 0c             	cmp    $0xc,%eax
  80050b:	75 67                	jne    800574 <serve+0xf6>
			process_timer(whom);
  80050d:	8b 5d e4             	mov    -0x1c(%ebp),%ebx

static void
process_timer(envid_t envid) {
	uint32_t start, now, to;

	if (envid != timer_envid) {
  800510:	3b 1d 3c 60 81 00    	cmp    0x81603c,%ebx
  800516:	74 12                	je     80052a <serve+0xac>
		cprintf("NS: received timer interrupt from envid %x not timer env\n", envid);
  800518:	89 5c 24 04          	mov    %ebx,0x4(%esp)
  80051c:	c7 04 24 a0 19 81 00 	movl   $0x8119a0,(%esp)
  800523:	e8 50 ea 00 00       	call   80ef78 <cprintf>
  800528:	eb 39                	jmp    800563 <serve+0xe5>
		return;
	}

	start = sys_time_msec();
  80052a:	e8 4e f6 00 00       	call   80fb7d <sys_time_msec>
  80052f:	89 45 d4             	mov    %eax,-0x2c(%ebp)
	thread_yield();
  800532:	e8 06 aa 00 00       	call   80af3d <thread_yield>
	now = sys_time_msec();
  800537:	e8 41 f6 00 00       	call   80fb7d <sys_time_msec>

	to = TIMER_INTERVAL - (now - start);
	ipc_send(envid, to, 0, 0);
  80053c:	c7 44 24 0c 00 00 00 	movl   $0x0,0xc(%esp)
  800543:	00 
  800544:	c7 44 24 08 00 00 00 	movl   $0x0,0x8(%esp)
  80054b:	00 

	start = sys_time_msec();
	thread_yield();
	now = sys_time_msec();

	to = TIMER_INTERVAL - (now - start);
  80054c:	8b 55 d4             	mov    -0x2c(%ebp),%edx
  80054f:	81 c2 fa 00 00 00    	add    $0xfa,%edx
  800555:	29 c2                	sub    %eax,%edx
	ipc_send(envid, to, 0, 0);
  800557:	89 54 24 04          	mov    %edx,0x4(%esp)
  80055b:	89 1c 24             	mov    %ebx,(%esp)
  80055e:	e8 a9 fa 00 00       	call   81000c <ipc_send>
		}

		// first take care of requests that do not contain an argument page
		if (reqno == NSREQ_TIMER) {
			process_timer(whom);
			put_buffer(va);
  800563:	89 f0                	mov    %esi,%eax
  800565:	e8 ca fa ff ff       	call   800034 <put_buffer>

	while (1) {
		// ipc_recv will block the entire process, so we flush
		// all pending work from other threads.  We limit the
		// number of yields in case there's a rogue thread.
		for (i = 0; thread_wakeups_pending() && i < 32; ++i)
  80056a:	bb 00 00 00 00       	mov    $0x0,%ebx

		// first take care of requests that do not contain an argument page
		if (reqno == NSREQ_TIMER) {
			process_timer(whom);
			put_buffer(va);
			continue;
  80056f:	e9 23 ff ff ff       	jmp    800497 <serve+0x19>
		}

		// All remaining requests must contain an argument page
		if (!(perm & PTE_P)) {
  800574:	f6 45 e0 01          	testb  $0x1,-0x20(%ebp)
  800578:	75 1d                	jne    800597 <serve+0x119>
			cprintf("Invalid request from %08x: no argument page\n", whom);
  80057a:	8b 45 e4             	mov    -0x1c(%ebp),%eax
  80057d:	89 44 24 04          	mov    %eax,0x4(%esp)
  800581:	c7 04 24 dc 19 81 00 	movl   $0x8119dc,(%esp)
  800588:	e8 eb e9 00 00       	call   80ef78 <cprintf>

	while (1) {
		// ipc_recv will block the entire process, so we flush
		// all pending work from other threads.  We limit the
		// number of yields in case there's a rogue thread.
		for (i = 0; thread_wakeups_pending() && i < 32; ++i)
  80058d:	bb 00 00 00 00       	mov    $0x0,%ebx
		}

		// All remaining requests must contain an argument page
		if (!(perm & PTE_P)) {
			cprintf("Invalid request from %08x: no argument page\n", whom);
			continue; // just leave it hanging...
  800592:	e9 00 ff ff ff       	jmp    800497 <serve+0x19>
		}

		// Since some lwIP socket calls will block, create a thread and
		// process the rest of the request in the thread.
		struct st_args *args = malloc(sizeof(struct st_args));
  800597:	c7 04 24 0c 00 00 00 	movl   $0xc,(%esp)
  80059e:	e8 8d 09 01 00       	call   810f30 <malloc>
		if (!args)
  8005a3:	85 c0                	test   %eax,%eax
  8005a5:	75 1c                	jne    8005c3 <serve+0x145>
			panic("could not allocate thread args structure");
  8005a7:	c7 44 24 08 0c 1a 81 	movl   $0x811a0c,0x8(%esp)
  8005ae:	00 
  8005af:	c7 44 24 04 27 01 00 	movl   $0x127,0x4(%esp)
  8005b6:	00 
  8005b7:	c7 04 24 44 1a 81 00 	movl   $0x811a44,(%esp)
  8005be:	e8 bd e8 00 00       	call   80ee80 <_panic>

		args->reqno = reqno;
  8005c3:	89 18                	mov    %ebx,(%eax)
		args->whom = whom;
  8005c5:	8b 55 e4             	mov    -0x1c(%ebp),%edx
  8005c8:	89 50 04             	mov    %edx,0x4(%eax)
		args->req = va;
  8005cb:	89 70 08             	mov    %esi,0x8(%eax)

		thread_create(0, "serve_thread", serve_thread, (uint32_t)args);
  8005ce:	89 44 24 0c          	mov    %eax,0xc(%esp)
  8005d2:	c7 44 24 08 48 00 80 	movl   $0x800048,0x8(%esp)
  8005d9:	00 
  8005da:	c7 44 24 04 9e 1a 81 	movl   $0x811a9e,0x4(%esp)
  8005e1:	00 
  8005e2:	c7 04 24 00 00 00 00 	movl   $0x0,(%esp)
  8005e9:	e8 03 a8 00 00       	call   80adf1 <thread_create>
		thread_yield(); // let the thread created run
  8005ee:	e8 4a a9 00 00       	call   80af3d <thread_yield>

	while (1) {
		// ipc_recv will block the entire process, so we flush
		// all pending work from other threads.  We limit the
		// number of yields in case there's a rogue thread.
		for (i = 0; thread_wakeups_pending() && i < 32; ++i)
  8005f3:	bb 00 00 00 00       	mov    $0x0,%ebx
  8005f8:	e9 9a fe ff ff       	jmp    800497 <serve+0x19>

008005fd <tmain>:
		thread_yield(); // let the thread created run
	}
}

static void
tmain(uint32_t arg) {
  8005fd:	55                   	push   %ebp
  8005fe:	89 e5                	mov    %esp,%ebp
  800600:	56                   	push   %esi
  800601:	53                   	push   %ebx
  800602:	83 ec 10             	sub    $0x10,%esp
	serve_init(inet_addr(IP),
  800605:	c7 04 24 ab 1a 81 00 	movl   $0x811aab,(%esp)
  80060c:	e8 96 78 00 00       	call   807ea7 <inet_addr>
  800611:	89 c3                	mov    %eax,%ebx
  800613:	c7 04 24 b4 1a 81 00 	movl   $0x811ab4,(%esp)
  80061a:	e8 88 78 00 00       	call   807ea7 <inet_addr>
  80061f:	89 c6                	mov    %eax,%esi
  800621:	c7 04 24 c2 1a 81 00 	movl   $0x811ac2,(%esp)
  800628:	e8 7a 78 00 00       	call   807ea7 <inet_addr>
  80062d:	89 5c 24 08          	mov    %ebx,0x8(%esp)
  800631:	89 74 24 04          	mov    %esi,0x4(%esp)
  800635:	89 04 24             	mov    %eax,(%esp)
  800638:	e8 b2 fc ff ff       	call   8002ef <serve_init>
		   inet_addr(MASK),
		   inet_addr(DEFAULT));
	serve();
  80063d:	e8 3c fe ff ff       	call   80047e <serve>

00800642 <umain>:
}

void
umain(int argc, char **argv)
{
  800642:	55                   	push   %ebp
  800643:	89 e5                	mov    %esp,%ebp
  800645:	53                   	push   %ebx
  800646:	83 ec 14             	sub    $0x14,%esp
	envid_t ns_envid = sys_getenvid();
  800649:	e8 89 f2 00 00       	call   80f8d7 <sys_getenvid>
  80064e:	89 c3                	mov    %eax,%ebx

	binaryname = "ns";
  800650:	c7 05 e8 52 81 00 91 	movl   $0x814491,0x8152e8
  800657:	44 81 00 

	// fork off the timer thread which will send us periodic messages
	timer_envid = fork();
  80065a:	e8 58 f6 00 00       	call   80fcb7 <fork>
  80065f:	a3 3c 60 81 00       	mov    %eax,0x81603c
	if (timer_envid < 0)
  800664:	85 c0                	test   %eax,%eax
  800666:	79 1c                	jns    800684 <umain+0x42>
		panic("error forking");
  800668:	c7 44 24 08 cc 1a 81 	movl   $0x811acc,0x8(%esp)
  80066f:	00 
  800670:	c7 44 24 04 44 01 00 	movl   $0x144,0x4(%esp)
  800677:	00 
  800678:	c7 04 24 44 1a 81 00 	movl   $0x811a44,(%esp)
  80067f:	e8 fc e7 00 00       	call   80ee80 <_panic>
	else if (timer_envid == 0) {
  800684:	85 c0                	test   %eax,%eax
  800686:	75 15                	jne    80069d <umain+0x5b>
		timer(ns_envid, TIMER_INTERVAL);
  800688:	c7 44 24 04 fa 00 00 	movl   $0xfa,0x4(%esp)
  80068f:	00 
  800690:	89 1c 24             	mov    %ebx,(%esp)
  800693:	e8 ac 00 00 00       	call   800744 <timer>
		return;
  800698:	e9 9e 00 00 00       	jmp    80073b <umain+0xf9>
	}

	// fork off the input thread which will poll the NIC driver for input
	// packets
	input_envid = fork();
  80069d:	e8 15 f6 00 00       	call   80fcb7 <fork>
  8006a2:	a3 40 60 81 00       	mov    %eax,0x816040
	if (input_envid < 0)
  8006a7:	85 c0                	test   %eax,%eax
  8006a9:	79 1c                	jns    8006c7 <umain+0x85>
		panic("error forking");
  8006ab:	c7 44 24 08 cc 1a 81 	movl   $0x811acc,0x8(%esp)
  8006b2:	00 
  8006b3:	c7 44 24 04 4e 01 00 	movl   $0x14e,0x4(%esp)
  8006ba:	00 
  8006bb:	c7 04 24 44 1a 81 00 	movl   $0x811a44,(%esp)
  8006c2:	e8 b9 e7 00 00       	call   80ee80 <_panic>
	else if (input_envid == 0) {
  8006c7:	85 c0                	test   %eax,%eax
  8006c9:	75 0a                	jne    8006d5 <umain+0x93>
		input(ns_envid);
  8006cb:	89 1c 24             	mov    %ebx,(%esp)
  8006ce:	e8 2d 01 00 00       	call   800800 <input>
		return;
  8006d3:	eb 66                	jmp    80073b <umain+0xf9>
	}

	// fork off the output thread that will send the packets to the NIC
	// driver
	output_envid = fork();
  8006d5:	e8 dd f5 00 00       	call   80fcb7 <fork>
  8006da:	a3 00 60 81 00       	mov    %eax,0x816000
	if (output_envid < 0)
  8006df:	85 c0                	test   %eax,%eax
  8006e1:	79 1c                	jns    8006ff <umain+0xbd>
		panic("error forking");
  8006e3:	c7 44 24 08 cc 1a 81 	movl   $0x811acc,0x8(%esp)
  8006ea:	00 
  8006eb:	c7 44 24 04 58 01 00 	movl   $0x158,0x4(%esp)
  8006f2:	00 
  8006f3:	c7 04 24 44 1a 81 00 	movl   $0x811a44,(%esp)
  8006fa:	e8 81 e7 00 00       	call   80ee80 <_panic>
	else if (output_envid == 0) {
  8006ff:	85 c0                	test   %eax,%eax
  800701:	75 0a                	jne    80070d <umain+0xcb>
		output(ns_envid);
  800703:	89 1c 24             	mov    %ebx,(%esp)
  800706:	e8 b9 01 00 00       	call   8008c4 <output>
		return;
  80070b:	eb 2e                	jmp    80073b <umain+0xf9>
	}

	// lwIP requires a user threading library; start the library and jump
	// into a thread to continue initialization.
	thread_init();
  80070d:	e8 46 a6 00 00       	call   80ad58 <thread_init>
	thread_create(0, "main", tmain, 0);
  800712:	c7 44 24 0c 00 00 00 	movl   $0x0,0xc(%esp)
  800719:	00 
  80071a:	c7 44 24 08 fd 05 80 	movl   $0x8005fd,0x8(%esp)
  800721:	00 
  800722:	c7 44 24 04 da 1a 81 	movl   $0x811ada,0x4(%esp)
  800729:	00 
  80072a:	c7 04 24 00 00 00 00 	movl   $0x0,(%esp)
  800731:	e8 bb a6 00 00       	call   80adf1 <thread_create>
	thread_yield();
  800736:	e8 02 a8 00 00       	call   80af3d <thread_yield>
	// never coming here!
}
  80073b:	83 c4 14             	add    $0x14,%esp
  80073e:	5b                   	pop    %ebx
  80073f:	5d                   	pop    %ebp
  800740:	c3                   	ret    
  800741:	00 00                	add    %al,(%eax)
	...

00800744 <timer>:
#include "ns.h"

void
timer(envid_t ns_envid, uint32_t initial_to) {
  800744:	55                   	push   %ebp
  800745:	89 e5                	mov    %esp,%ebp
  800747:	57                   	push   %edi
  800748:	56                   	push   %esi
  800749:	53                   	push   %ebx
  80074a:	83 ec 2c             	sub    $0x2c,%esp
  80074d:	8b 7d 08             	mov    0x8(%ebp),%edi
	int r;
	uint32_t stop = sys_time_msec() + initial_to;
  800750:	e8 28 f4 00 00       	call   80fb7d <sys_time_msec>
  800755:	89 c3                	mov    %eax,%ebx
  800757:	03 5d 0c             	add    0xc(%ebp),%ebx

	binaryname = "ns_timer";
  80075a:	c7 05 e8 52 81 00 0c 	movl   $0x811b0c,0x8152e8
  800761:	1b 81 00 

		ipc_send(ns_envid, NSREQ_TIMER, 0, 0);

		while (1) {
			uint32_t to, whom;
			to = ipc_recv((int32_t *) &whom, 0, 0);
  800764:	8d 75 e4             	lea    -0x1c(%ebp),%esi
  800767:	eb 05                	jmp    80076e <timer+0x2a>

	binaryname = "ns_timer";

	while (1) {
		while((r = sys_time_msec()) < stop && r >= 0) {
			sys_yield();
  800769:	e8 88 f1 00 00       	call   80f8f6 <sys_yield>
	uint32_t stop = sys_time_msec() + initial_to;

	binaryname = "ns_timer";

	while (1) {
		while((r = sys_time_msec()) < stop && r >= 0) {
  80076e:	e8 0a f4 00 00       	call   80fb7d <sys_time_msec>
  800773:	39 c3                	cmp    %eax,%ebx
  800775:	76 06                	jbe    80077d <timer+0x39>
  800777:	85 c0                	test   %eax,%eax
  800779:	79 ee                	jns    800769 <timer+0x25>
  80077b:	eb 04                	jmp    800781 <timer+0x3d>
			sys_yield();
		}
		if (r < 0)
  80077d:	85 c0                	test   %eax,%eax
  80077f:	79 20                	jns    8007a1 <timer+0x5d>
			panic("sys_time_msec: %e", r);
  800781:	89 44 24 0c          	mov    %eax,0xc(%esp)
  800785:	c7 44 24 08 15 1b 81 	movl   $0x811b15,0x8(%esp)
  80078c:	00 
  80078d:	c7 44 24 04 0f 00 00 	movl   $0xf,0x4(%esp)
  800794:	00 
  800795:	c7 04 24 27 1b 81 00 	movl   $0x811b27,(%esp)
  80079c:	e8 df e6 00 00       	call   80ee80 <_panic>

		ipc_send(ns_envid, NSREQ_TIMER, 0, 0);
  8007a1:	c7 44 24 0c 00 00 00 	movl   $0x0,0xc(%esp)
  8007a8:	00 
  8007a9:	c7 44 24 08 00 00 00 	movl   $0x0,0x8(%esp)
  8007b0:	00 
  8007b1:	c7 44 24 04 0c 00 00 	movl   $0xc,0x4(%esp)
  8007b8:	00 
  8007b9:	89 3c 24             	mov    %edi,(%esp)
  8007bc:	e8 4b f8 00 00       	call   81000c <ipc_send>

		while (1) {
			uint32_t to, whom;
			to = ipc_recv((int32_t *) &whom, 0, 0);
  8007c1:	c7 44 24 08 00 00 00 	movl   $0x0,0x8(%esp)
  8007c8:	00 
  8007c9:	c7 44 24 04 00 00 00 	movl   $0x0,0x4(%esp)
  8007d0:	00 
  8007d1:	89 34 24             	mov    %esi,(%esp)
  8007d4:	e8 c3 f7 00 00       	call   80ff9c <ipc_recv>
  8007d9:	89 c3                	mov    %eax,%ebx

			if (whom != ns_envid) {
  8007db:	8b 45 e4             	mov    -0x1c(%ebp),%eax
  8007de:	39 c7                	cmp    %eax,%edi
  8007e0:	74 12                	je     8007f4 <timer+0xb0>
				cprintf("NS TIMER: timer thread got IPC message from env %x not NS\n", whom);
  8007e2:	89 44 24 04          	mov    %eax,0x4(%esp)
  8007e6:	c7 04 24 34 1b 81 00 	movl   $0x811b34,(%esp)
  8007ed:	e8 86 e7 00 00       	call   80ef78 <cprintf>
				continue;
			}

			stop = sys_time_msec() + to;
			break;
		}
  8007f2:	eb cd                	jmp    8007c1 <timer+0x7d>
			if (whom != ns_envid) {
				cprintf("NS TIMER: timer thread got IPC message from env %x not NS\n", whom);
				continue;
			}

			stop = sys_time_msec() + to;
  8007f4:	e8 84 f3 00 00       	call   80fb7d <sys_time_msec>
  8007f9:	01 c3                	add    %eax,%ebx
			break;
		}
	}
  8007fb:	e9 6e ff ff ff       	jmp    80076e <timer+0x2a>

00800800 <input>:

#define INPUT_COUNT 10

void
input(envid_t ns_envid)
{
  800800:	55                   	push   %ebp
  800801:	89 e5                	mov    %esp,%ebp
  800803:	56                   	push   %esi
  800804:	53                   	push   %ebx
  800805:	83 ec 10             	sub    $0x10,%esp
  800808:	8b 75 08             	mov    0x8(%ebp),%esi
	binaryname = "ns_input";
  80080b:	c7 05 e8 52 81 00 6f 	movl   $0x811b6f,0x8152e8
  800812:	1b 81 00 
	// Hint: When you IPC a page to the network server, it will be
	// reading from it for a while, so don't immediately receive
	// another packet in to the same physical page.
	struct jif_pkt *pkt = (struct jif_pkt *)REQVA;
	int r;
	if ((r = sys_page_alloc(0, pkt, PTE_P | PTE_U | PTE_W)) < 0)
  800815:	c7 44 24 08 07 00 00 	movl   $0x7,0x8(%esp)
  80081c:	00 
  80081d:	c7 44 24 04 00 b0 fe 	movl   $0xffeb000,0x4(%esp)
  800824:	0f 
  800825:	c7 04 24 00 00 00 00 	movl   $0x0,(%esp)
  80082c:	e8 e4 f0 00 00       	call   80f915 <sys_page_alloc>
  800831:	85 c0                	test   %eax,%eax
  800833:	79 20                	jns    800855 <input+0x55>
			panic("sys_page_alloc: %e", r);
  800835:	89 44 24 0c          	mov    %eax,0xc(%esp)
  800839:	c7 44 24 08 78 1b 81 	movl   $0x811b78,0x8(%esp)
  800840:	00 
  800841:	c7 44 24 04 15 00 00 	movl   $0x15,0x4(%esp)
  800848:	00 
  800849:	c7 04 24 8b 1b 81 00 	movl   $0x811b8b,(%esp)
  800850:	e8 2b e6 00 00       	call   80ee80 <_panic>
	uint32_t len;
		
	while (1)
	{
		// cprintf("input hello world\n");
		if ((r = sys_e1000_receive(pkt->jp_data, (uint32_t *)&pkt->jp_len)) < 0)
  800855:	c7 44 24 04 00 b0 fe 	movl   $0xffeb000,0x4(%esp)
  80085c:	0f 
  80085d:	c7 04 24 04 b0 fe 0f 	movl   $0xffeb004,(%esp)
  800864:	e8 54 f3 00 00       	call   80fbbd <sys_e1000_receive>
  800869:	85 c0                	test   %eax,%eax
  80086b:	78 e8                	js     800855 <input+0x55>
		{
			continue;
		}
		memcpy(nsipcbuf.pkt.jp_data,pkt->jp_data,pkt->jp_len);
  80086d:	a1 00 b0 fe 0f       	mov    0xffeb000,%eax
  800872:	89 44 24 08          	mov    %eax,0x8(%esp)
  800876:	c7 44 24 04 04 b0 fe 	movl   $0xffeb004,0x4(%esp)
  80087d:	0f 
  80087e:	c7 04 24 04 e0 b3 00 	movl   $0xb3e004,(%esp)
  800885:	e8 7c ee 00 00       	call   80f706 <memcpy>
		nsipcbuf.pkt.jp_len = pkt->jp_len;
  80088a:	a1 00 b0 fe 0f       	mov    0xffeb000,%eax
  80088f:	a3 00 e0 b3 00       	mov    %eax,0xb3e000
		ipc_send(ns_envid, NSREQ_INPUT, &nsipcbuf, PTE_P | PTE_W | PTE_U);
  800894:	c7 44 24 0c 07 00 00 	movl   $0x7,0xc(%esp)
  80089b:	00 
  80089c:	c7 44 24 08 00 e0 b3 	movl   $0xb3e000,0x8(%esp)
  8008a3:	00 
  8008a4:	c7 44 24 04 0a 00 00 	movl   $0xa,0x4(%esp)
  8008ab:	00 
  8008ac:	89 34 24             	mov    %esi,(%esp)
  8008af:	e8 58 f7 00 00       	call   81000c <ipc_send>
  8008b4:	bb 14 00 00 00       	mov    $0x14,%ebx
		
		for (int i = 0; i < INPUT_COUNT*2; i++)
			sys_yield();
  8008b9:	e8 38 f0 00 00       	call   80f8f6 <sys_yield>
		}
		memcpy(nsipcbuf.pkt.jp_data,pkt->jp_data,pkt->jp_len);
		nsipcbuf.pkt.jp_len = pkt->jp_len;
		ipc_send(ns_envid, NSREQ_INPUT, &nsipcbuf, PTE_P | PTE_W | PTE_U);
		
		for (int i = 0; i < INPUT_COUNT*2; i++)
  8008be:	4b                   	dec    %ebx
  8008bf:	75 f8                	jne    8008b9 <input+0xb9>
  8008c1:	eb 92                	jmp    800855 <input+0x55>
	...

008008c4 <output>:

extern union Nsipc nsipcbuf;

void
output(envid_t ns_envid)
{
  8008c4:	55                   	push   %ebp
  8008c5:	89 e5                	mov    %esp,%ebp
  8008c7:	83 ec 18             	sub    $0x18,%esp
	binaryname = "ns_output";
  8008ca:	c7 05 e8 52 81 00 97 	movl   $0x811b97,0x8152e8
  8008d1:	1b 81 00 
	struct jif_pkt *pkt = &(nsipcbuf.pkt); //= (struct jif_pkt *)(REQVA + PGSIZE);
	int r;

	while (1)
	{
		if ((r = ipc_recv(&ns_envid, pkt, 0)) < 0)
  8008d4:	c7 44 24 08 00 00 00 	movl   $0x0,0x8(%esp)
  8008db:	00 
  8008dc:	c7 44 24 04 00 e0 b3 	movl   $0xb3e000,0x4(%esp)
  8008e3:	00 
  8008e4:	8d 45 08             	lea    0x8(%ebp),%eax
  8008e7:	89 04 24             	mov    %eax,(%esp)
  8008ea:	e8 ad f6 00 00       	call   80ff9c <ipc_recv>
  8008ef:	85 c0                	test   %eax,%eax
  8008f1:	79 0e                	jns    800901 <output+0x3d>
		{
			cprintf("output ipc_recv error\n");
  8008f3:	c7 04 24 a1 1b 81 00 	movl   $0x811ba1,(%esp)
  8008fa:	e8 79 e6 00 00       	call   80ef78 <cprintf>
			continue;
  8008ff:	eb d3                	jmp    8008d4 <output+0x10>
		}
		while(1){		
			if ((r = sys_e1000_transmit(pkt->jp_data, pkt->jp_len)) < 0)
  800901:	a1 00 e0 b3 00       	mov    0xb3e000,%eax
  800906:	89 44 24 04          	mov    %eax,0x4(%esp)
  80090a:	c7 04 24 04 e0 b3 00 	movl   $0xb3e004,(%esp)
  800911:	e8 86 f2 00 00       	call   80fb9c <sys_e1000_transmit>
  800916:	85 c0                	test   %eax,%eax
  800918:	79 ba                	jns    8008d4 <output+0x10>
			{
				if (r != -E_NET_NO_DES)
  80091a:	83 f8 f0             	cmp    $0xfffffff0,%eax
  80091d:	74 0e                	je     80092d <output+0x69>
				{
					cprintf("output sys_e1000_transmit error\n");
  80091f:	c7 04 24 d8 1b 81 00 	movl   $0x811bd8,(%esp)
  800926:	e8 4d e6 00 00       	call   80ef78 <cprintf>
  80092b:	eb d4                	jmp    800901 <output+0x3d>
				}
				else
				{
					cprintf("output packet overflow yield\n");
  80092d:	c7 04 24 b8 1b 81 00 	movl   $0x811bb8,(%esp)
  800934:	e8 3f e6 00 00       	call   80ef78 <cprintf>
					sys_yield();
  800939:	e8 b8 ef 00 00       	call   80f8f6 <sys_yield>
  80093e:	eb c1                	jmp    800901 <output+0x3d>

00800940 <get_socket>:
 * @param s externally used socket index
 * @return struct lwip_socket for the socket or NULL if not found
 */
static struct lwip_socket *
get_socket(int s)
{
  800940:	55                   	push   %ebp
  800941:	89 e5                	mov    %esp,%ebp
  struct lwip_socket *sock;

  if ((s < 0) || (s >= NUM_SOCKETS)) {
  800943:	83 f8 1f             	cmp    $0x1f,%eax
  800946:	76 11                	jbe    800959 <get_socket+0x19>
    LWIP_DEBUGF(SOCKETS_DEBUG, ("get_socket(%d): invalid\n", s));
    set_errno(EBADF);
  800948:	c7 05 20 c2 b3 00 09 	movl   $0x9,0xb3c220
  80094f:	00 00 00 
    return NULL;
  800952:	b8 00 00 00 00       	mov    $0x0,%eax
  800957:	eb 24                	jmp    80097d <get_socket+0x3d>
  }

  sock = &sockets[s];
  800959:	8d 14 80             	lea    (%eax,%eax,4),%edx
  80095c:	c1 e2 02             	shl    $0x2,%edx
  80095f:	8d 82 80 60 81 00    	lea    0x816080(%edx),%eax

  if (!sock->conn) {
  800965:	83 ba 80 60 81 00 00 	cmpl   $0x0,0x816080(%edx)
  80096c:	75 0f                	jne    80097d <get_socket+0x3d>
    LWIP_DEBUGF(SOCKETS_DEBUG, ("get_socket(%d): not active\n", s));
    set_errno(EBADF);
  80096e:	c7 05 20 c2 b3 00 09 	movl   $0x9,0xb3c220
  800975:	00 00 00 
    return NULL;
  800978:	b8 00 00 00 00       	mov    $0x0,%eax
  }

  return sock;
}
  80097d:	5d                   	pop    %ebp
  80097e:	c3                   	ret    

0080097f <lwip_setsockopt_internal>:
  return err ? -1 : 0;
}

static void
lwip_setsockopt_internal(void *arg)
{
  80097f:	55                   	push   %ebp
  800980:	89 e5                	mov    %esp,%ebp
  800982:	53                   	push   %ebx
  800983:	83 ec 14             	sub    $0x14,%esp
  800986:	8b 45 08             	mov    0x8(%ebp),%eax
#endif /* LWIP_DEBUG */
  int level, optname;
  const void *optval;
  struct lwip_setgetsockopt_data *data;

  LWIP_ASSERT("arg != NULL", arg != NULL);
  800989:	85 c0                	test   %eax,%eax
  80098b:	75 1c                	jne    8009a9 <lwip_setsockopt_internal+0x2a>
  80098d:	c7 44 24 08 f9 1b 81 	movl   $0x811bf9,0x8(%esp)
  800994:	00 
  800995:	c7 44 24 04 ae 06 00 	movl   $0x6ae,0x4(%esp)
  80099c:	00 
  80099d:	c7 04 24 05 1c 81 00 	movl   $0x811c05,(%esp)
  8009a4:	e8 d7 e4 00 00       	call   80ee80 <_panic>

  data = (struct lwip_setgetsockopt_data*)arg;
  sock = data->sock;
  8009a9:	8b 10                	mov    (%eax),%edx
#ifdef LWIP_DEBUG
  s = data->s;
#endif /* LWIP_DEBUG */
  level = data->level;
  optname = data->optname;
  8009ab:	8b 48 0c             	mov    0xc(%eax),%ecx
  optval = data->optval;
  8009ae:	8b 58 10             	mov    0x10(%eax),%ebx

  switch (level) {
  8009b1:	8b 40 08             	mov    0x8(%eax),%eax
  8009b4:	83 f8 06             	cmp    $0x6,%eax
  8009b7:	0f 84 80 00 00 00    	je     800a3d <lwip_setsockopt_internal+0xbe>
  8009bd:	3d ff 0f 00 00       	cmp    $0xfff,%eax
  8009c2:	74 09                	je     8009cd <lwip_setsockopt_internal+0x4e>
  8009c4:	85 c0                	test   %eax,%eax
  8009c6:	74 53                	je     800a1b <lwip_setsockopt_internal+0x9c>
  8009c8:	e9 a4 00 00 00       	jmp    800a71 <lwip_setsockopt_internal+0xf2>

/* Level: SOL_SOCKET */
  case SOL_SOCKET:
    switch (optname) {
  8009cd:	83 f9 20             	cmp    $0x20,%ecx
  8009d0:	74 11                	je     8009e3 <lwip_setsockopt_internal+0x64>
  8009d2:	81 f9 0a 10 00 00    	cmp    $0x100a,%ecx
  8009d8:	74 26                	je     800a00 <lwip_setsockopt_internal+0x81>
  8009da:	83 f9 08             	cmp    $0x8,%ecx
  8009dd:	0f 85 8e 00 00 00    	jne    800a71 <lwip_setsockopt_internal+0xf2>
#if SO_REUSE
    case SO_REUSEADDR:
    case SO_REUSEPORT:
#endif /* SO_REUSE */
    /* UNIMPL case SO_USELOOPBACK: */
      if (*(int*)optval) {
  8009e3:	83 3b 00             	cmpl   $0x0,(%ebx)
  8009e6:	74 0b                	je     8009f3 <lwip_setsockopt_internal+0x74>
        sock->conn->pcb.ip->so_options |= optname;
  8009e8:	8b 02                	mov    (%edx),%eax
  8009ea:	8b 40 08             	mov    0x8(%eax),%eax
  8009ed:	66 09 48 08          	or     %cx,0x8(%eax)
  8009f1:	eb 7e                	jmp    800a71 <lwip_setsockopt_internal+0xf2>
      } else {
        sock->conn->pcb.ip->so_options &= ~optname;
  8009f3:	8b 02                	mov    (%edx),%eax
  8009f5:	8b 40 08             	mov    0x8(%eax),%eax
  8009f8:	f7 d1                	not    %ecx
  8009fa:	66 21 48 08          	and    %cx,0x8(%eax)
  8009fe:	eb 71                	jmp    800a71 <lwip_setsockopt_internal+0xf2>
      sock->conn->recv_bufsize = ( *(int*)optval );
      break;
#endif /* LWIP_SO_RCVBUF */
#if LWIP_UDP
    case SO_NO_CHECK:
      if (*(int*)optval) {
  800a00:	83 3b 00             	cmpl   $0x0,(%ebx)
  800a03:	74 0b                	je     800a10 <lwip_setsockopt_internal+0x91>
        udp_setflags(sock->conn->pcb.udp, udp_flags(sock->conn->pcb.udp) | UDP_FLAGS_NOCHKSUM);
  800a05:	8b 02                	mov    (%edx),%eax
  800a07:	8b 40 08             	mov    0x8(%eax),%eax
  800a0a:	80 48 10 01          	orb    $0x1,0x10(%eax)
  800a0e:	eb 61                	jmp    800a71 <lwip_setsockopt_internal+0xf2>
      } else {
        udp_setflags(sock->conn->pcb.udp, udp_flags(sock->conn->pcb.udp) & ~UDP_FLAGS_NOCHKSUM);
  800a10:	8b 02                	mov    (%edx),%eax
  800a12:	8b 40 08             	mov    0x8(%eax),%eax
  800a15:	80 60 10 fe          	andb   $0xfe,0x10(%eax)
  800a19:	eb 56                	jmp    800a71 <lwip_setsockopt_internal+0xf2>
    }  /* switch (optname) */
    break;

/* Level: IPPROTO_IP */
  case IPPROTO_IP:
    switch (optname) {
  800a1b:	83 f9 01             	cmp    $0x1,%ecx
  800a1e:	74 11                	je     800a31 <lwip_setsockopt_internal+0xb2>
  800a20:	83 f9 02             	cmp    $0x2,%ecx
  800a23:	75 4c                	jne    800a71 <lwip_setsockopt_internal+0xf2>
    case IP_TTL:
      sock->conn->pcb.ip->ttl = (u8_t)(*(int*)optval);
  800a25:	8b 02                	mov    (%edx),%eax
  800a27:	8b 40 08             	mov    0x8(%eax),%eax
  800a2a:	8b 0b                	mov    (%ebx),%ecx
  800a2c:	88 48 0b             	mov    %cl,0xb(%eax)
      LWIP_DEBUGF(SOCKETS_DEBUG, ("lwip_setsockopt(%d, IPPROTO_IP, IP_TTL, ..) -> %u\n",
                  s, sock->conn->pcb.ip->ttl));
      break;
  800a2f:	eb 40                	jmp    800a71 <lwip_setsockopt_internal+0xf2>
    case IP_TOS:
      sock->conn->pcb.ip->tos = (u8_t)(*(int*)optval);
  800a31:	8b 02                	mov    (%edx),%eax
  800a33:	8b 40 08             	mov    0x8(%eax),%eax
  800a36:	8b 0b                	mov    (%ebx),%ecx
  800a38:	88 48 0a             	mov    %cl,0xa(%eax)
      LWIP_DEBUGF(SOCKETS_DEBUG, ("lwip_setsockopt(%d, IPPROTO_IP, IP_TOS, ..)-> %u\n",
                  s, sock->conn->pcb.ip->tos));
      break;
  800a3b:	eb 34                	jmp    800a71 <lwip_setsockopt_internal+0xf2>
    break;

#if LWIP_TCP
/* Level: IPPROTO_TCP */
  case IPPROTO_TCP:
    switch (optname) {
  800a3d:	83 f9 01             	cmp    $0x1,%ecx
  800a40:	74 07                	je     800a49 <lwip_setsockopt_internal+0xca>
  800a42:	83 f9 02             	cmp    $0x2,%ecx
  800a45:	75 2a                	jne    800a71 <lwip_setsockopt_internal+0xf2>
  800a47:	eb 1b                	jmp    800a64 <lwip_setsockopt_internal+0xe5>
    case TCP_NODELAY:
      if (*(int*)optval) {
  800a49:	83 3b 00             	cmpl   $0x0,(%ebx)
  800a4c:	74 0b                	je     800a59 <lwip_setsockopt_internal+0xda>
        sock->conn->pcb.tcp->flags |= TF_NODELAY;
  800a4e:	8b 02                	mov    (%edx),%eax
  800a50:	8b 40 08             	mov    0x8(%eax),%eax
  800a53:	80 48 20 40          	orb    $0x40,0x20(%eax)
  800a57:	eb 18                	jmp    800a71 <lwip_setsockopt_internal+0xf2>
      } else {
        sock->conn->pcb.tcp->flags &= ~TF_NODELAY;
  800a59:	8b 02                	mov    (%edx),%eax
  800a5b:	8b 40 08             	mov    0x8(%eax),%eax
  800a5e:	80 60 20 bf          	andb   $0xbf,0x20(%eax)
  800a62:	eb 0d                	jmp    800a71 <lwip_setsockopt_internal+0xf2>
      }
      LWIP_DEBUGF(SOCKETS_DEBUG, ("lwip_setsockopt(%d, IPPROTO_TCP, TCP_NODELAY) -> %s\n",
                  s, (*(int *)optval)?"on":"off") );
      break;
    case TCP_KEEPALIVE:
      sock->conn->pcb.tcp->keep_idle = (u32_t)(*(int*)optval);
  800a64:	8b 02                	mov    (%edx),%eax
  800a66:	8b 40 08             	mov    0x8(%eax),%eax
  800a69:	8b 0b                	mov    (%ebx),%ecx
  800a6b:	89 88 9c 00 00 00    	mov    %ecx,0x9c(%eax)
      break;
    }  /* switch (optname) */
    break;
#endif /* LWIP_UDP */
  }  /* switch (level) */
  sys_sem_signal(sock->conn->op_completed);
  800a71:	8b 02                	mov    (%edx),%eax
  800a73:	8b 40 10             	mov    0x10(%eax),%eax
  800a76:	89 04 24             	mov    %eax,(%esp)
  800a79:	e8 43 9d 00 00       	call   80a7c1 <sys_sem_signal>
}
  800a7e:	83 c4 14             	add    $0x14,%esp
  800a81:	5b                   	pop    %ebx
  800a82:	5d                   	pop    %ebp
  800a83:	c3                   	ret    

00800a84 <lwip_getsockopt_internal>:
  return err ? -1 : 0;
}

static void
lwip_getsockopt_internal(void *arg)
{
  800a84:	55                   	push   %ebp
  800a85:	89 e5                	mov    %esp,%ebp
  800a87:	53                   	push   %ebx
  800a88:	83 ec 14             	sub    $0x14,%esp
  800a8b:	8b 45 08             	mov    0x8(%ebp),%eax
#endif /* LWIP_DEBUG */
  int level, optname;
  void *optval;
  struct lwip_setgetsockopt_data *data;

  LWIP_ASSERT("arg != NULL", arg != NULL);
  800a8e:	85 c0                	test   %eax,%eax
  800a90:	75 1c                	jne    800aae <lwip_getsockopt_internal+0x2a>
  800a92:	c7 44 24 08 f9 1b 81 	movl   $0x811bf9,0x8(%esp)
  800a99:	00 
  800a9a:	c7 44 24 04 38 05 00 	movl   $0x538,0x4(%esp)
  800aa1:	00 
  800aa2:	c7 04 24 05 1c 81 00 	movl   $0x811c05,(%esp)
  800aa9:	e8 d2 e3 00 00       	call   80ee80 <_panic>

  data = (struct lwip_setgetsockopt_data*)arg;
  sock = data->sock;
  800aae:	8b 10                	mov    (%eax),%edx
#ifdef LWIP_DEBUG
  s = data->s;
#endif /* LWIP_DEBUG */
  level = data->level;
  optname = data->optname;
  800ab0:	8b 48 0c             	mov    0xc(%eax),%ecx
  optval = data->optval;
  800ab3:	8b 58 10             	mov    0x10(%eax),%ebx

  switch (level) {
  800ab6:	8b 40 08             	mov    0x8(%eax),%eax
  800ab9:	83 f8 06             	cmp    $0x6,%eax
  800abc:	0f 84 11 01 00 00    	je     800bd3 <lwip_getsockopt_internal+0x14f>
  800ac2:	3d ff 0f 00 00       	cmp    $0xfff,%eax
  800ac7:	74 0d                	je     800ad6 <lwip_getsockopt_internal+0x52>
  800ac9:	85 c0                	test   %eax,%eax
  800acb:	0f 84 de 00 00 00    	je     800baf <lwip_getsockopt_internal+0x12b>
  800ad1:	e9 26 01 00 00       	jmp    800bfc <lwip_getsockopt_internal+0x178>
   
/* Level: SOL_SOCKET */
  case SOL_SOCKET:
    switch (optname) {
  800ad6:	83 f9 20             	cmp    $0x20,%ecx
  800ad9:	74 37                	je     800b12 <lwip_getsockopt_internal+0x8e>
  800adb:	83 f9 20             	cmp    $0x20,%ecx
  800ade:	7f 10                	jg     800af0 <lwip_getsockopt_internal+0x6c>
  800ae0:	83 f9 02             	cmp    $0x2,%ecx
  800ae3:	74 2d                	je     800b12 <lwip_getsockopt_internal+0x8e>
  800ae5:	83 f9 08             	cmp    $0x8,%ecx
  800ae8:	0f 85 0e 01 00 00    	jne    800bfc <lwip_getsockopt_internal+0x178>
  800aee:	eb 22                	jmp    800b12 <lwip_getsockopt_internal+0x8e>
  800af0:	81 f9 08 10 00 00    	cmp    $0x1008,%ecx
  800af6:	74 2c                	je     800b24 <lwip_getsockopt_internal+0xa0>
  800af8:	81 f9 0a 10 00 00    	cmp    $0x100a,%ecx
  800afe:	0f 84 9b 00 00 00    	je     800b9f <lwip_getsockopt_internal+0x11b>
  800b04:	81 f9 07 10 00 00    	cmp    $0x1007,%ecx
  800b0a:	0f 85 ec 00 00 00    	jne    800bfc <lwip_getsockopt_internal+0x178>
  800b10:	eb 56                	jmp    800b68 <lwip_getsockopt_internal+0xe4>
#if SO_REUSE
    case SO_REUSEADDR:
    case SO_REUSEPORT:
#endif /* SO_REUSE */
    /*case SO_USELOOPBACK: UNIMPL */
      *(int*)optval = sock->conn->pcb.ip->so_options & optname;
  800b12:	8b 02                	mov    (%edx),%eax
  800b14:	8b 40 08             	mov    0x8(%eax),%eax
  800b17:	0f b7 40 08          	movzwl 0x8(%eax),%eax
  800b1b:	21 c1                	and    %eax,%ecx
  800b1d:	89 0b                	mov    %ecx,(%ebx)
      LWIP_DEBUGF(SOCKETS_DEBUG, ("lwip_getsockopt(%d, SOL_SOCKET, optname=0x%x, ..) = %s\n",
                                  s, optname, (*(int*)optval?"on":"off")));
      break;
  800b1f:	e9 d8 00 00 00       	jmp    800bfc <lwip_getsockopt_internal+0x178>

    case SO_TYPE:
      switch (NETCONNTYPE_GROUP(sock->conn->type)) {
  800b24:	8b 02                	mov    (%edx),%eax
  800b26:	8b 08                	mov    (%eax),%ecx
  800b28:	89 c8                	mov    %ecx,%eax
  800b2a:	25 f0 00 00 00       	and    $0xf0,%eax
  800b2f:	83 f8 20             	cmp    $0x20,%eax
  800b32:	74 22                	je     800b56 <lwip_getsockopt_internal+0xd2>
  800b34:	83 f8 40             	cmp    $0x40,%eax
  800b37:	74 07                	je     800b40 <lwip_getsockopt_internal+0xbc>
  800b39:	83 f8 10             	cmp    $0x10,%eax
  800b3c:	75 23                	jne    800b61 <lwip_getsockopt_internal+0xdd>
  800b3e:	eb 0b                	jmp    800b4b <lwip_getsockopt_internal+0xc7>
      case NETCONN_RAW:
        *(int*)optval = SOCK_RAW;
  800b40:	c7 03 03 00 00 00    	movl   $0x3,(%ebx)
        break;
  800b46:	e9 b1 00 00 00       	jmp    800bfc <lwip_getsockopt_internal+0x178>
      case NETCONN_TCP:
        *(int*)optval = SOCK_STREAM;
  800b4b:	c7 03 01 00 00 00    	movl   $0x1,(%ebx)
        break;
  800b51:	e9 a6 00 00 00       	jmp    800bfc <lwip_getsockopt_internal+0x178>
      case NETCONN_UDP:
        *(int*)optval = SOCK_DGRAM;
  800b56:	c7 03 02 00 00 00    	movl   $0x2,(%ebx)
        break;
  800b5c:	e9 9b 00 00 00       	jmp    800bfc <lwip_getsockopt_internal+0x178>
      default: /* unrecognized socket type */
        *(int*)optval = sock->conn->type;
  800b61:	89 0b                	mov    %ecx,(%ebx)
  800b63:	e9 94 00 00 00       	jmp    800bfc <lwip_getsockopt_internal+0x178>
      LWIP_DEBUGF(SOCKETS_DEBUG, ("lwip_getsockopt(%d, SOL_SOCKET, SO_TYPE) = %d\n",
                  s, *(int *)optval));
      break;

    case SO_ERROR:
      if (sock->err == 0) {
  800b68:	83 7a 10 00          	cmpl   $0x0,0x10(%edx)
  800b6c:	75 23                	jne    800b91 <lwip_getsockopt_internal+0x10d>
        sock_set_errno(sock, err_to_errno(sock->conn->err));
  800b6e:	8b 02                	mov    (%edx),%eax
  800b70:	0f be 40 0c          	movsbl 0xc(%eax),%eax
  800b74:	f7 d8                	neg    %eax
  800b76:	83 f8 0e             	cmp    $0xe,%eax
  800b79:	77 09                	ja     800b84 <lwip_getsockopt_internal+0x100>
  800b7b:	8b 04 85 c0 1c 81 00 	mov    0x811cc0(,%eax,4),%eax
  800b82:	eb 05                	jmp    800b89 <lwip_getsockopt_internal+0x105>
  800b84:	b8 05 00 00 00       	mov    $0x5,%eax
  800b89:	89 42 10             	mov    %eax,0x10(%edx)
  800b8c:	a3 20 c2 b3 00       	mov    %eax,0xb3c220
      } 
      *(int *)optval = sock->err;
  800b91:	8b 42 10             	mov    0x10(%edx),%eax
  800b94:	89 03                	mov    %eax,(%ebx)
      sock->err = 0;
  800b96:	c7 42 10 00 00 00 00 	movl   $0x0,0x10(%edx)
      LWIP_DEBUGF(SOCKETS_DEBUG, ("lwip_getsockopt(%d, SOL_SOCKET, SO_ERROR) = %d\n",
                  s, *(int *)optval));
      break;
  800b9d:	eb 5d                	jmp    800bfc <lwip_getsockopt_internal+0x178>
      *(int *)optval = sock->conn->recv_bufsize;
      break;
#endif /* LWIP_SO_RCVBUF */
#if LWIP_UDP
    case SO_NO_CHECK:
      *(int*)optval = (udp_flags(sock->conn->pcb.udp) & UDP_FLAGS_NOCHKSUM) ? 1 : 0;
  800b9f:	8b 02                	mov    (%edx),%eax
  800ba1:	8b 40 08             	mov    0x8(%eax),%eax
  800ba4:	0f b6 40 10          	movzbl 0x10(%eax),%eax
  800ba8:	83 e0 01             	and    $0x1,%eax
  800bab:	89 03                	mov    %eax,(%ebx)
      break;
  800bad:	eb 4d                	jmp    800bfc <lwip_getsockopt_internal+0x178>
    }  /* switch (optname) */
    break;

/* Level: IPPROTO_IP */
  case IPPROTO_IP:
    switch (optname) {
  800baf:	83 f9 01             	cmp    $0x1,%ecx
  800bb2:	74 12                	je     800bc6 <lwip_getsockopt_internal+0x142>
  800bb4:	83 f9 02             	cmp    $0x2,%ecx
  800bb7:	75 43                	jne    800bfc <lwip_getsockopt_internal+0x178>
    case IP_TTL:
      *(int*)optval = sock->conn->pcb.ip->ttl;
  800bb9:	8b 02                	mov    (%edx),%eax
  800bbb:	8b 40 08             	mov    0x8(%eax),%eax
  800bbe:	0f b6 40 0b          	movzbl 0xb(%eax),%eax
  800bc2:	89 03                	mov    %eax,(%ebx)
      LWIP_DEBUGF(SOCKETS_DEBUG, ("lwip_getsockopt(%d, IPPROTO_IP, IP_TTL) = %d\n",
                  s, *(int *)optval));
      break;
  800bc4:	eb 36                	jmp    800bfc <lwip_getsockopt_internal+0x178>
    case IP_TOS:
      *(int*)optval = sock->conn->pcb.ip->tos;
  800bc6:	8b 02                	mov    (%edx),%eax
  800bc8:	8b 40 08             	mov    0x8(%eax),%eax
  800bcb:	0f b6 40 0a          	movzbl 0xa(%eax),%eax
  800bcf:	89 03                	mov    %eax,(%ebx)
      LWIP_DEBUGF(SOCKETS_DEBUG, ("lwip_getsockopt(%d, IPPROTO_IP, IP_TOS) = %d\n",
                  s, *(int *)optval));
      break;
  800bd1:	eb 29                	jmp    800bfc <lwip_getsockopt_internal+0x178>
    break;

#if LWIP_TCP
/* Level: IPPROTO_TCP */
  case IPPROTO_TCP:
    switch (optname) {
  800bd3:	83 f9 01             	cmp    $0x1,%ecx
  800bd6:	74 07                	je     800bdf <lwip_getsockopt_internal+0x15b>
  800bd8:	83 f9 02             	cmp    $0x2,%ecx
  800bdb:	75 1f                	jne    800bfc <lwip_getsockopt_internal+0x178>
  800bdd:	eb 10                	jmp    800bef <lwip_getsockopt_internal+0x16b>
    case TCP_NODELAY:
      *(int*)optval = (sock->conn->pcb.tcp->flags & TF_NODELAY);
  800bdf:	8b 02                	mov    (%edx),%eax
  800be1:	8b 40 08             	mov    0x8(%eax),%eax
  800be4:	0f b6 40 20          	movzbl 0x20(%eax),%eax
  800be8:	83 e0 40             	and    $0x40,%eax
  800beb:	89 03                	mov    %eax,(%ebx)
      LWIP_DEBUGF(SOCKETS_DEBUG, ("lwip_getsockopt(%d, IPPROTO_TCP, TCP_NODELAY) = %s\n",
                  s, (*(int*)optval)?"on":"off") );
      break;
  800bed:	eb 0d                	jmp    800bfc <lwip_getsockopt_internal+0x178>
    case TCP_KEEPALIVE:
      *(int*)optval = (int)sock->conn->pcb.tcp->keep_idle;
  800bef:	8b 02                	mov    (%edx),%eax
  800bf1:	8b 40 08             	mov    0x8(%eax),%eax
  800bf4:	8b 80 9c 00 00 00    	mov    0x9c(%eax),%eax
  800bfa:	89 03                	mov    %eax,(%ebx)
      break;
    }  /* switch (optname) */
    break;
#endif /* LWIP_UDP */
  } /* switch (level) */
  sys_sem_signal(sock->conn->op_completed);
  800bfc:	8b 02                	mov    (%edx),%eax
  800bfe:	8b 40 10             	mov    0x10(%eax),%eax
  800c01:	89 04 24             	mov    %eax,(%esp)
  800c04:	e8 b8 9b 00 00       	call   80a7c1 <sys_sem_signal>
}
  800c09:	83 c4 14             	add    $0x14,%esp
  800c0c:	5b                   	pop    %ebx
  800c0d:	5d                   	pop    %ebp
  800c0e:	c3                   	ret    

00800c0f <lwip_selscan>:
 * @param exceptset not yet implemented
 * @return number of sockets that had events (read+write)
 */
static int
lwip_selscan(int maxfdp1, fd_set *readset, fd_set *writeset, fd_set *exceptset)
{
  800c0f:	55                   	push   %ebp
  800c10:	89 e5                	mov    %esp,%ebp
  800c12:	57                   	push   %edi
  800c13:	56                   	push   %esi
  800c14:	53                   	push   %ebx
  800c15:	83 ec 4c             	sub    $0x4c,%esp
  800c18:	89 45 d0             	mov    %eax,-0x30(%ebp)
  800c1b:	89 55 cc             	mov    %edx,-0x34(%ebp)
  800c1e:	89 4d c8             	mov    %ecx,-0x38(%ebp)
  int i, nready = 0;
  fd_set lreadset, lwriteset, lexceptset;
  struct lwip_socket *p_sock;
  
  FD_ZERO(&lreadset);
  800c21:	c7 44 24 08 04 00 00 	movl   $0x4,0x8(%esp)
  800c28:	00 
  800c29:	c7 44 24 04 00 00 00 	movl   $0x0,0x4(%esp)
  800c30:	00 
  800c31:	8d 45 e4             	lea    -0x1c(%ebp),%eax
  800c34:	89 04 24             	mov    %eax,(%esp)
  800c37:	e8 16 ea 00 00       	call   80f652 <memset>
  FD_ZERO(&lwriteset);
  800c3c:	c7 44 24 08 04 00 00 	movl   $0x4,0x8(%esp)
  800c43:	00 
  800c44:	c7 44 24 04 00 00 00 	movl   $0x0,0x4(%esp)
  800c4b:	00 
  800c4c:	8d 45 e0             	lea    -0x20(%ebp),%eax
  800c4f:	89 04 24             	mov    %eax,(%esp)
  800c52:	e8 fb e9 00 00       	call   80f652 <memset>
  FD_ZERO(&lexceptset);
  800c57:	c7 44 24 08 04 00 00 	movl   $0x4,0x8(%esp)
  800c5e:	00 
  800c5f:	c7 44 24 04 00 00 00 	movl   $0x0,0x4(%esp)
  800c66:	00 
  800c67:	8d 45 dc             	lea    -0x24(%ebp),%eax
  800c6a:	89 04 24             	mov    %eax,(%esp)
  800c6d:	e8 e0 e9 00 00       	call   80f652 <memset>
 * @return number of sockets that had events (read+write)
 */
static int
lwip_selscan(int maxfdp1, fd_set *readset, fd_set *writeset, fd_set *exceptset)
{
  int i, nready = 0;
  800c72:	c7 45 c4 00 00 00 00 	movl   $0x0,-0x3c(%ebp)
  FD_ZERO(&lwriteset);
  FD_ZERO(&lexceptset);
  
  /* Go through each socket in each list to count number of sockets which
  currently match */
  for(i = 0; i < maxfdp1; i++) {
  800c79:	bb 00 00 00 00       	mov    $0x0,%ebx
  800c7e:	e9 80 00 00 00       	jmp    800d03 <lwip_selscan+0xf4>
    if (FD_ISSET(i, readset)) {
  800c83:	89 de                	mov    %ebx,%esi
  800c85:	85 db                	test   %ebx,%ebx
  800c87:	79 03                	jns    800c8c <lwip_selscan+0x7d>
  800c89:	8d 73 07             	lea    0x7(%ebx),%esi
  800c8c:	c1 fe 03             	sar    $0x3,%esi
  800c8f:	89 f7                	mov    %esi,%edi
  800c91:	89 d9                	mov    %ebx,%ecx
  800c93:	83 e1 07             	and    $0x7,%ecx
  800c96:	89 4d d4             	mov    %ecx,-0x2c(%ebp)
  800c99:	8b 55 cc             	mov    -0x34(%ebp),%edx
  800c9c:	0f b6 04 32          	movzbl (%edx,%esi,1),%eax
  800ca0:	d3 f8                	sar    %cl,%eax
  800ca2:	a8 01                	test   $0x1,%al
  800ca4:	74 29                	je     800ccf <lwip_selscan+0xc0>
      /* See if netconn of this socket is ready for read */
      p_sock = get_socket(i);
  800ca6:	89 d8                	mov    %ebx,%eax
  800ca8:	e8 93 fc ff ff       	call   800940 <get_socket>
      if (p_sock && (p_sock->lastdata || p_sock->rcvevent)) {
  800cad:	85 c0                	test   %eax,%eax
  800caf:	74 1e                	je     800ccf <lwip_selscan+0xc0>
  800cb1:	83 78 04 00          	cmpl   $0x0,0x4(%eax)
  800cb5:	75 07                	jne    800cbe <lwip_selscan+0xaf>
  800cb7:	66 83 78 0a 00       	cmpw   $0x0,0xa(%eax)
  800cbc:	74 11                	je     800ccf <lwip_selscan+0xc0>
        FD_SET(i, &lreadset);
  800cbe:	b8 01 00 00 00       	mov    $0x1,%eax
  800cc3:	8a 4d d4             	mov    -0x2c(%ebp),%cl
  800cc6:	d3 e0                	shl    %cl,%eax
  800cc8:	08 44 3d e4          	or     %al,-0x1c(%ebp,%edi,1)
        LWIP_DEBUGF(SOCKETS_DEBUG, ("lwip_selscan: fd=%d ready for reading\n", i));
        nready++;
  800ccc:	ff 45 c4             	incl   -0x3c(%ebp)
      }
    }
    if (FD_ISSET(i, writeset)) {
  800ccf:	8b 4d c8             	mov    -0x38(%ebp),%ecx
  800cd2:	0f b6 04 31          	movzbl (%ecx,%esi,1),%eax
  800cd6:	8a 4d d4             	mov    -0x2c(%ebp),%cl
  800cd9:	d3 f8                	sar    %cl,%eax
  800cdb:	a8 01                	test   $0x1,%al
  800cdd:	74 23                	je     800d02 <lwip_selscan+0xf3>
      /* See if netconn of this socket is ready for write */
      p_sock = get_socket(i);
  800cdf:	89 d8                	mov    %ebx,%eax
  800ce1:	e8 5a fc ff ff       	call   800940 <get_socket>
      if (p_sock && p_sock->sendevent) {
  800ce6:	85 c0                	test   %eax,%eax
  800ce8:	74 18                	je     800d02 <lwip_selscan+0xf3>
  800cea:	66 83 78 0c 00       	cmpw   $0x0,0xc(%eax)
  800cef:	74 11                	je     800d02 <lwip_selscan+0xf3>
        FD_SET(i, &lwriteset);
  800cf1:	b8 01 00 00 00       	mov    $0x1,%eax
  800cf6:	8a 4d d4             	mov    -0x2c(%ebp),%cl
  800cf9:	d3 e0                	shl    %cl,%eax
  800cfb:	08 44 3d e0          	or     %al,-0x20(%ebp,%edi,1)
        LWIP_DEBUGF(SOCKETS_DEBUG, ("lwip_selscan: fd=%d ready for writing\n", i));
        nready++;
  800cff:	ff 45 c4             	incl   -0x3c(%ebp)
  FD_ZERO(&lwriteset);
  FD_ZERO(&lexceptset);
  
  /* Go through each socket in each list to count number of sockets which
  currently match */
  for(i = 0; i < maxfdp1; i++) {
  800d02:	43                   	inc    %ebx
  800d03:	3b 5d d0             	cmp    -0x30(%ebp),%ebx
  800d06:	0f 8c 77 ff ff ff    	jl     800c83 <lwip_selscan+0x74>
        LWIP_DEBUGF(SOCKETS_DEBUG, ("lwip_selscan: fd=%d ready for writing\n", i));
        nready++;
      }
    }
  }
  *readset = lreadset;
  800d0c:	8b 45 e4             	mov    -0x1c(%ebp),%eax
  800d0f:	8b 55 cc             	mov    -0x34(%ebp),%edx
  800d12:	89 02                	mov    %eax,(%edx)
  *writeset = lwriteset;
  800d14:	8b 45 e0             	mov    -0x20(%ebp),%eax
  800d17:	8b 4d c8             	mov    -0x38(%ebp),%ecx
  800d1a:	89 01                	mov    %eax,(%ecx)
  FD_ZERO(exceptset);
  800d1c:	c7 44 24 08 04 00 00 	movl   $0x4,0x8(%esp)
  800d23:	00 
  800d24:	c7 44 24 04 00 00 00 	movl   $0x0,0x4(%esp)
  800d2b:	00 
  800d2c:	8b 45 08             	mov    0x8(%ebp),%eax
  800d2f:	89 04 24             	mov    %eax,(%esp)
  800d32:	e8 1b e9 00 00       	call   80f652 <memset>
  
  return nready;
}
  800d37:	8b 45 c4             	mov    -0x3c(%ebp),%eax
  800d3a:	83 c4 4c             	add    $0x4c,%esp
  800d3d:	5b                   	pop    %ebx
  800d3e:	5e                   	pop    %esi
  800d3f:	5f                   	pop    %edi
  800d40:	5d                   	pop    %ebp
  800d41:	c3                   	ret    

00800d42 <lwip_getaddrname>:
  return lwip_close(s); /* XXX temporary hack until proper implementation */
}

static int
lwip_getaddrname(int s, struct sockaddr *name, socklen_t *namelen, u8_t local)
{
  800d42:	55                   	push   %ebp
  800d43:	89 e5                	mov    %esp,%ebp
  800d45:	57                   	push   %edi
  800d46:	56                   	push   %esi
  800d47:	53                   	push   %ebx
  800d48:	83 ec 4c             	sub    $0x4c,%esp
  800d4b:	89 d7                	mov    %edx,%edi
  800d4d:	89 ce                	mov    %ecx,%esi
  800d4f:	8a 55 08             	mov    0x8(%ebp),%dl
  800d52:	88 55 c7             	mov    %dl,-0x39(%ebp)
  struct lwip_socket *sock;
  struct sockaddr_in sin;
  struct ip_addr naddr;

  sock = get_socket(s);
  800d55:	e8 e6 fb ff ff       	call   800940 <get_socket>
  800d5a:	89 c3                	mov    %eax,%ebx
  if (!sock)
  800d5c:	85 c0                	test   %eax,%eax
  800d5e:	0f 84 91 00 00 00    	je     800df5 <lwip_getaddrname+0xb3>
    return -1;

  memset(&sin, 0, sizeof(sin));
  800d64:	c7 44 24 08 10 00 00 	movl   $0x10,0x8(%esp)
  800d6b:	00 
  800d6c:	c7 44 24 04 00 00 00 	movl   $0x0,0x4(%esp)
  800d73:	00 
  800d74:	8d 45 d8             	lea    -0x28(%ebp),%eax
  800d77:	89 04 24             	mov    %eax,(%esp)
  800d7a:	e8 d3 e8 00 00       	call   80f652 <memset>
  sin.sin_len = sizeof(sin);
  800d7f:	c6 45 d8 10          	movb   $0x10,-0x28(%ebp)
  sin.sin_family = AF_INET;
  800d83:	c6 45 d9 02          	movb   $0x2,-0x27(%ebp)

  /* get the IP address and port */
  netconn_getaddr(sock->conn, &naddr, &sin.sin_port, local);
  800d87:	0f b6 45 c7          	movzbl -0x39(%ebp),%eax
  800d8b:	89 44 24 0c          	mov    %eax,0xc(%esp)
  800d8f:	8d 45 da             	lea    -0x26(%ebp),%eax
  800d92:	89 44 24 08          	mov    %eax,0x8(%esp)
  800d96:	8d 45 d4             	lea    -0x2c(%ebp),%eax
  800d99:	89 44 24 04          	mov    %eax,0x4(%esp)
  800d9d:	8b 03                	mov    (%ebx),%eax
  800d9f:	89 04 24             	mov    %eax,(%esp)
  800da2:	e8 04 a8 00 00       	call   80b5ab <netconn_getaddr>

  LWIP_DEBUGF(SOCKETS_DEBUG, ("lwip_getaddrname(%d, addr=", s));
  //ip_addr_debug_print(SOCKETS_DEBUG, &naddr);
  LWIP_DEBUGF(SOCKETS_DEBUG, (" port=%d)\n", sin.sin_port));

  sin.sin_port = htons(sin.sin_port);
  800da7:	0f b7 45 da          	movzwl -0x26(%ebp),%eax
  800dab:	89 04 24             	mov    %eax,(%esp)
  800dae:	e8 a6 6e 00 00       	call   807c59 <htons>
  800db3:	66 89 45 da          	mov    %ax,-0x26(%ebp)
  sin.sin_addr.s_addr = naddr.addr;
  800db7:	8b 45 d4             	mov    -0x2c(%ebp),%eax
  800dba:	89 45 dc             	mov    %eax,-0x24(%ebp)

  if (*namelen > sizeof(sin))
  800dbd:	83 3e 10             	cmpl   $0x10,(%esi)
  800dc0:	76 06                	jbe    800dc8 <lwip_getaddrname+0x86>
    *namelen = sizeof(sin);
  800dc2:	c7 06 10 00 00 00    	movl   $0x10,(%esi)

  SMEMCPY(name, &sin, *namelen);
  800dc8:	8b 06                	mov    (%esi),%eax
  800dca:	89 44 24 08          	mov    %eax,0x8(%esp)
  800dce:	8d 45 d8             	lea    -0x28(%ebp),%eax
  800dd1:	89 44 24 04          	mov    %eax,0x4(%esp)
  800dd5:	89 3c 24             	mov    %edi,(%esp)
  800dd8:	e8 29 e9 00 00       	call   80f706 <memcpy>
  sock_set_errno(sock, 0);
  800ddd:	c7 43 10 00 00 00 00 	movl   $0x0,0x10(%ebx)
  800de4:	c7 05 20 c2 b3 00 00 	movl   $0x0,0xb3c220
  800deb:	00 00 00 
  return 0;
  800dee:	b8 00 00 00 00       	mov    $0x0,%eax
  800df3:	eb 05                	jmp    800dfa <lwip_getaddrname+0xb8>
  struct sockaddr_in sin;
  struct ip_addr naddr;

  sock = get_socket(s);
  if (!sock)
    return -1;
  800df5:	b8 ff ff ff ff       	mov    $0xffffffff,%eax
    *namelen = sizeof(sin);

  SMEMCPY(name, &sin, *namelen);
  sock_set_errno(sock, 0);
  return 0;
}
  800dfa:	83 c4 4c             	add    $0x4c,%esp
  800dfd:	5b                   	pop    %ebx
  800dfe:	5e                   	pop    %esi
  800dff:	5f                   	pop    %edi
  800e00:	5d                   	pop    %ebp
  800e01:	c3                   	ret    

00800e02 <alloc_socket>:
 * @param newconn the netconn for which to allocate a socket
 * @return the index of the new socket; -1 on error
 */
static int
alloc_socket(struct netconn *newconn)
{
  800e02:	55                   	push   %ebp
  800e03:	89 e5                	mov    %esp,%ebp
  800e05:	56                   	push   %esi
  800e06:	53                   	push   %ebx
  800e07:	83 ec 10             	sub    $0x10,%esp
  800e0a:	89 c6                	mov    %eax,%esi
  int i;

  /* Protect socket array */
  sys_sem_wait(socksem);
  800e0c:	a1 60 60 81 00       	mov    0x816060,%eax
  800e11:	89 04 24             	mov    %eax,(%esp)
  800e14:	e8 53 48 00 00       	call   80566c <sys_sem_wait>
  800e19:	b8 80 60 81 00       	mov    $0x816080,%eax

  /* allocate a new socket identifier */
  for (i = 0; i < NUM_SOCKETS; ++i) {
  800e1e:	bb 00 00 00 00       	mov    $0x0,%ebx
    if (!sockets[i].conn) {
  800e23:	83 38 00             	cmpl   $0x0,(%eax)
  800e26:	75 5d                	jne    800e85 <alloc_socket+0x83>
      sockets[i].conn       = newconn;
  800e28:	8d 14 9d 00 00 00 00 	lea    0x0(,%ebx,4),%edx
  800e2f:	8d 0c 1a             	lea    (%edx,%ebx,1),%ecx
  800e32:	c1 e1 02             	shl    $0x2,%ecx
  800e35:	89 b1 80 60 81 00    	mov    %esi,0x816080(%ecx)
      sockets[i].lastdata   = NULL;
  800e3b:	c7 81 84 60 81 00 00 	movl   $0x0,0x816084(%ecx)
  800e42:	00 00 00 
      sockets[i].lastoffset = 0;
  800e45:	66 c7 81 88 60 81 00 	movw   $0x0,0x816088(%ecx)
  800e4c:	00 00 
      sockets[i].rcvevent   = 0;
  800e4e:	66 c7 81 8a 60 81 00 	movw   $0x0,0x81608a(%ecx)
  800e55:	00 00 
      sockets[i].sendevent  = 1; /* TCP send buf is empty */
  800e57:	66 c7 81 8c 60 81 00 	movw   $0x1,0x81608c(%ecx)
  800e5e:	01 00 
      sockets[i].flags      = 0;
  800e60:	66 c7 81 8e 60 81 00 	movw   $0x0,0x81608e(%ecx)
  800e67:	00 00 
      sockets[i].err        = 0;
  800e69:	01 da                	add    %ebx,%edx
  800e6b:	c7 04 95 90 60 81 00 	movl   $0x0,0x816090(,%edx,4)
  800e72:	00 00 00 00 
      sys_sem_signal(socksem);
  800e76:	a1 60 60 81 00       	mov    0x816060,%eax
  800e7b:	89 04 24             	mov    %eax,(%esp)
  800e7e:	e8 3e 99 00 00       	call   80a7c1 <sys_sem_signal>
      return i;
  800e83:	eb 1b                	jmp    800ea0 <alloc_socket+0x9e>

  /* Protect socket array */
  sys_sem_wait(socksem);

  /* allocate a new socket identifier */
  for (i = 0; i < NUM_SOCKETS; ++i) {
  800e85:	43                   	inc    %ebx
  800e86:	83 c0 14             	add    $0x14,%eax
  800e89:	83 fb 20             	cmp    $0x20,%ebx
  800e8c:	75 95                	jne    800e23 <alloc_socket+0x21>
      sockets[i].err        = 0;
      sys_sem_signal(socksem);
      return i;
    }
  }
  sys_sem_signal(socksem);
  800e8e:	a1 60 60 81 00       	mov    0x816060,%eax
  800e93:	89 04 24             	mov    %eax,(%esp)
  800e96:	e8 26 99 00 00       	call   80a7c1 <sys_sem_signal>
  return -1;
  800e9b:	bb ff ff ff ff       	mov    $0xffffffff,%ebx
}
  800ea0:	89 d8                	mov    %ebx,%eax
  800ea2:	83 c4 10             	add    $0x10,%esp
  800ea5:	5b                   	pop    %ebx
  800ea6:	5e                   	pop    %esi
  800ea7:	5d                   	pop    %ebp
  800ea8:	c3                   	ret    

00800ea9 <event_callback>:
 * Callback registered in the netconn layer for each socket-netconn.
 * Processes recvevent (data available) and wakes up tasks waiting for select.
 */
static void
event_callback(struct netconn *conn, enum netconn_evt evt, u16_t len)
{
  800ea9:	55                   	push   %ebp
  800eaa:	89 e5                	mov    %esp,%ebp
  800eac:	57                   	push   %edi
  800ead:	56                   	push   %esi
  800eae:	53                   	push   %ebx
  800eaf:	83 ec 2c             	sub    $0x2c,%esp
  800eb2:	8b 75 08             	mov    0x8(%ebp),%esi
  struct lwip_select_cb *scb;

  LWIP_UNUSED_ARG(len);

  /* Get socket */
  if (conn) {
  800eb5:	85 f6                	test   %esi,%esi
  800eb7:	0f 84 5b 01 00 00    	je     801018 <event_callback+0x16f>
    s = conn->socket;
  800ebd:	8b 5e 1c             	mov    0x1c(%esi),%ebx
    if (s < 0) {
  800ec0:	85 db                	test   %ebx,%ebx
  800ec2:	79 3d                	jns    800f01 <event_callback+0x58>
      /* Data comes in right away after an accept, even though
       * the server task might not have created a new socket yet.
       * Just count down (or up) if that's the case and we
       * will use the data later. Note that only receive events
       * can happen before the new socket is set up. */
      sys_sem_wait(socksem);
  800ec4:	a1 60 60 81 00       	mov    0x816060,%eax
  800ec9:	89 04 24             	mov    %eax,(%esp)
  800ecc:	e8 9b 47 00 00       	call   80566c <sys_sem_wait>
      if (conn->socket < 0) {
  800ed1:	8b 46 1c             	mov    0x1c(%esi),%eax
  800ed4:	85 c0                	test   %eax,%eax
  800ed6:	79 1c                	jns    800ef4 <event_callback+0x4b>
        if (evt == NETCONN_EVT_RCVPLUS) {
  800ed8:	83 7d 0c 00          	cmpl   $0x0,0xc(%ebp)
  800edc:	75 04                	jne    800ee2 <event_callback+0x39>
          conn->socket--;
  800ede:	48                   	dec    %eax
  800edf:	89 46 1c             	mov    %eax,0x1c(%esi)
        }
        sys_sem_signal(socksem);
  800ee2:	a1 60 60 81 00       	mov    0x816060,%eax
  800ee7:	89 04 24             	mov    %eax,(%esp)
  800eea:	e8 d2 98 00 00       	call   80a7c1 <sys_sem_signal>
        return;
  800eef:	e9 24 01 00 00       	jmp    801018 <event_callback+0x16f>
      }
      sys_sem_signal(socksem);
  800ef4:	a1 60 60 81 00       	mov    0x816060,%eax
  800ef9:	89 04 24             	mov    %eax,(%esp)
  800efc:	e8 c0 98 00 00       	call   80a7c1 <sys_sem_signal>
    }

    sock = get_socket(s);
  800f01:	89 d8                	mov    %ebx,%eax
  800f03:	e8 38 fa ff ff       	call   800940 <get_socket>
  800f08:	89 c7                	mov    %eax,%edi
    if (!sock) {
  800f0a:	85 c0                	test   %eax,%eax
  800f0c:	0f 84 06 01 00 00    	je     801018 <event_callback+0x16f>
    }
  } else {
    return;
  }

  sys_sem_wait(selectsem);
  800f12:	a1 64 60 81 00       	mov    0x816064,%eax
  800f17:	89 04 24             	mov    %eax,(%esp)
  800f1a:	e8 4d 47 00 00       	call   80566c <sys_sem_wait>
  /* Set event as required */
  switch (evt) {
  800f1f:	83 7d 0c 01          	cmpl   $0x1,0xc(%ebp)
  800f23:	74 1a                	je     800f3f <event_callback+0x96>
  800f25:	83 7d 0c 01          	cmpl   $0x1,0xc(%ebp)
  800f29:	72 0e                	jb     800f39 <event_callback+0x90>
  800f2b:	83 7d 0c 02          	cmpl   $0x2,0xc(%ebp)
  800f2f:	74 14                	je     800f45 <event_callback+0x9c>
  800f31:	83 7d 0c 03          	cmpl   $0x3,0xc(%ebp)
  800f35:	75 1e                	jne    800f55 <event_callback+0xac>
  800f37:	eb 14                	jmp    800f4d <event_callback+0xa4>
    case NETCONN_EVT_RCVPLUS:
      sock->rcvevent++;
  800f39:	66 ff 47 0a          	incw   0xa(%edi)
      break;
  800f3d:	eb 32                	jmp    800f71 <event_callback+0xc8>
    case NETCONN_EVT_RCVMINUS:
      sock->rcvevent--;
  800f3f:	66 ff 4f 0a          	decw   0xa(%edi)
      break;
  800f43:	eb 2c                	jmp    800f71 <event_callback+0xc8>
    case NETCONN_EVT_SENDPLUS:
      sock->sendevent = 1;
  800f45:	66 c7 47 0c 01 00    	movw   $0x1,0xc(%edi)
      break;
  800f4b:	eb 24                	jmp    800f71 <event_callback+0xc8>
    case NETCONN_EVT_SENDMINUS:
      sock->sendevent = 0;
  800f4d:	66 c7 47 0c 00 00    	movw   $0x0,0xc(%edi)
      break;
  800f53:	eb 1c                	jmp    800f71 <event_callback+0xc8>
    default:
      LWIP_ASSERT("unknown event", 0);
  800f55:	c7 44 24 08 1c 1c 81 	movl   $0x811c1c,0x8(%esp)
  800f5c:	00 
  800f5d:	c7 44 24 04 17 04 00 	movl   $0x417,0x4(%esp)
  800f64:	00 
  800f65:	c7 04 24 05 1c 81 00 	movl   $0x811c05,(%esp)
  800f6c:	e8 0f df 00 00       	call   80ee80 <_panic>
      break;
  }
  sys_sem_signal(selectsem);
  800f71:	a1 64 60 81 00       	mov    0x816064,%eax
  800f76:	89 04 24             	mov    %eax,(%esp)
  800f79:	e8 43 98 00 00       	call   80a7c1 <sys_sem_signal>
  while (1) {
    sys_sem_wait(selectsem);
    for (scb = select_cb_list; scb; scb = scb->next) {
      if (scb->sem_signalled == 0) {
        /* Test this select call for our socket */
        if (scb->readset && FD_ISSET(s, scb->readset))
  800f7e:	89 de                	mov    %ebx,%esi
  800f80:	85 db                	test   %ebx,%ebx
  800f82:	79 03                	jns    800f87 <event_callback+0xde>
  800f84:	8d 73 07             	lea    0x7(%ebx),%esi
  800f87:	c1 fe 03             	sar    $0x3,%esi
  800f8a:	89 d9                	mov    %ebx,%ecx
  800f8c:	83 e1 07             	and    $0x7,%ecx
  800f8f:	b8 01 00 00 00       	mov    $0x1,%eax
  800f94:	d3 e0                	shl    %cl,%eax
  800f96:	89 45 e4             	mov    %eax,-0x1c(%ebp)
     signalling for the select. This means we need to go through the list
     multiple times ONLY IF a select was actually waiting. We go through
     the list the number of waiting select calls + 1. This list is
     expected to be small. */
  while (1) {
    sys_sem_wait(selectsem);
  800f99:	a1 64 60 81 00       	mov    0x816064,%eax
  800f9e:	89 04 24             	mov    %eax,(%esp)
  800fa1:	e8 c6 46 00 00       	call   80566c <sys_sem_wait>
    for (scb = select_cb_list; scb; scb = scb->next) {
  800fa6:	8b 1d 00 63 81 00    	mov    0x816300,%ebx
  800fac:	eb 36                	jmp    800fe4 <event_callback+0x13b>
      if (scb->sem_signalled == 0) {
  800fae:	83 7b 10 00          	cmpl   $0x0,0x10(%ebx)
  800fb2:	75 2e                	jne    800fe2 <event_callback+0x139>
        /* Test this select call for our socket */
        if (scb->readset && FD_ISSET(s, scb->readset))
  800fb4:	8b 43 04             	mov    0x4(%ebx),%eax
  800fb7:	85 c0                	test   %eax,%eax
  800fb9:	74 10                	je     800fcb <event_callback+0x122>
  800fbb:	0f b6 04 30          	movzbl (%eax,%esi,1),%eax
  800fbf:	85 45 e4             	test   %eax,-0x1c(%ebp)
  800fc2:	74 07                	je     800fcb <event_callback+0x122>
          if (sock->rcvevent)
  800fc4:	66 83 7f 0a 00       	cmpw   $0x0,0xa(%edi)
  800fc9:	75 1f                	jne    800fea <event_callback+0x141>
            break;
        if (scb->writeset && FD_ISSET(s, scb->writeset))
  800fcb:	8b 43 08             	mov    0x8(%ebx),%eax
  800fce:	85 c0                	test   %eax,%eax
  800fd0:	74 10                	je     800fe2 <event_callback+0x139>
  800fd2:	0f b6 04 30          	movzbl (%eax,%esi,1),%eax
  800fd6:	85 45 e4             	test   %eax,-0x1c(%ebp)
  800fd9:	74 07                	je     800fe2 <event_callback+0x139>
          if (sock->sendevent)
  800fdb:	66 83 7f 0c 00       	cmpw   $0x0,0xc(%edi)
  800fe0:	75 08                	jne    800fea <event_callback+0x141>
     multiple times ONLY IF a select was actually waiting. We go through
     the list the number of waiting select calls + 1. This list is
     expected to be small. */
  while (1) {
    sys_sem_wait(selectsem);
    for (scb = select_cb_list; scb; scb = scb->next) {
  800fe2:	8b 1b                	mov    (%ebx),%ebx
  800fe4:	85 db                	test   %ebx,%ebx
  800fe6:	75 c6                	jne    800fae <event_callback+0x105>
  800fe8:	eb 21                	jmp    80100b <event_callback+0x162>
          if (sock->sendevent)
            break;
      }
    }
    if (scb) {
      scb->sem_signalled = 1;
  800fea:	c7 43 10 01 00 00 00 	movl   $0x1,0x10(%ebx)
      sys_sem_signal(selectsem);
  800ff1:	a1 64 60 81 00       	mov    0x816064,%eax
  800ff6:	89 04 24             	mov    %eax,(%esp)
  800ff9:	e8 c3 97 00 00       	call   80a7c1 <sys_sem_signal>
      sys_sem_signal(scb->sem);
  800ffe:	8b 43 14             	mov    0x14(%ebx),%eax
  801001:	89 04 24             	mov    %eax,(%esp)
  801004:	e8 b8 97 00 00       	call   80a7c1 <sys_sem_signal>
    } else {
      sys_sem_signal(selectsem);
      break;
    }
  }
  801009:	eb 8e                	jmp    800f99 <event_callback+0xf0>
    if (scb) {
      scb->sem_signalled = 1;
      sys_sem_signal(selectsem);
      sys_sem_signal(scb->sem);
    } else {
      sys_sem_signal(selectsem);
  80100b:	a1 64 60 81 00       	mov    0x816064,%eax
  801010:	89 04 24             	mov    %eax,(%esp)
  801013:	e8 a9 97 00 00       	call   80a7c1 <sys_sem_signal>
      break;
    }
  }
}
  801018:	83 c4 2c             	add    $0x2c,%esp
  80101b:	5b                   	pop    %ebx
  80101c:	5e                   	pop    %esi
  80101d:	5f                   	pop    %edi
  80101e:	5d                   	pop    %ebp
  80101f:	c3                   	ret    

00801020 <lwip_socket_init>:
 * Initialize this module. This function has to be called before any other
 * functions in this module!
 */
void
lwip_socket_init(void)
{
  801020:	55                   	push   %ebp
  801021:	89 e5                	mov    %esp,%ebp
  801023:	83 ec 18             	sub    $0x18,%esp
  socksem   = sys_sem_new(1);
  801026:	c7 04 24 01 00 00 00 	movl   $0x1,(%esp)
  80102d:	e8 81 94 00 00       	call   80a4b3 <sys_sem_new>
  801032:	a3 60 60 81 00       	mov    %eax,0x816060
  selectsem = sys_sem_new(1);
  801037:	c7 04 24 01 00 00 00 	movl   $0x1,(%esp)
  80103e:	e8 70 94 00 00       	call   80a4b3 <sys_sem_new>
  801043:	a3 64 60 81 00       	mov    %eax,0x816064
}
  801048:	c9                   	leave  
  801049:	c3                   	ret    

0080104a <lwip_accept>:
 * Exceptions are documented!
 */

int
lwip_accept(int s, struct sockaddr *addr, socklen_t *addrlen)
{
  80104a:	55                   	push   %ebp
  80104b:	89 e5                	mov    %esp,%ebp
  80104d:	57                   	push   %edi
  80104e:	56                   	push   %esi
  80104f:	53                   	push   %ebx
  801050:	83 ec 4c             	sub    $0x4c,%esp
  int newsock;
  struct sockaddr_in sin;
  err_t err;

  LWIP_DEBUGF(SOCKETS_DEBUG, ("lwip_accept(%d)...\n", s));
  sock = get_socket(s);
  801053:	8b 45 08             	mov    0x8(%ebp),%eax
  801056:	e8 e5 f8 ff ff       	call   800940 <get_socket>
  80105b:	89 c7                	mov    %eax,%edi
  if (!sock)
  80105d:	85 c0                	test   %eax,%eax
  80105f:	0f 84 91 01 00 00    	je     8011f6 <lwip_accept+0x1ac>
    return -1;

  newconn = netconn_accept(sock->conn);
  801065:	8b 00                	mov    (%eax),%eax
  801067:	89 04 24             	mov    %eax,(%esp)
  80106a:	e8 10 a7 00 00       	call   80b77f <netconn_accept>
  80106f:	89 c3                	mov    %eax,%ebx
  if (!newconn) {
  801071:	85 c0                	test   %eax,%eax
  801073:	75 2d                	jne    8010a2 <lwip_accept+0x58>
    LWIP_DEBUGF(SOCKETS_DEBUG, ("lwip_accept(%d) failed, err=%d\n", s, sock->conn->err));
    sock_set_errno(sock, err_to_errno(sock->conn->err));
  801075:	8b 07                	mov    (%edi),%eax
  801077:	0f be 40 0c          	movsbl 0xc(%eax),%eax
  80107b:	f7 d8                	neg    %eax
  80107d:	83 f8 0e             	cmp    $0xe,%eax
  801080:	77 09                	ja     80108b <lwip_accept+0x41>
  801082:	8b 04 85 c0 1c 81 00 	mov    0x811cc0(,%eax,4),%eax
  801089:	eb 05                	jmp    801090 <lwip_accept+0x46>
  80108b:	b8 05 00 00 00       	mov    $0x5,%eax
  801090:	89 47 10             	mov    %eax,0x10(%edi)
  801093:	a3 20 c2 b3 00       	mov    %eax,0xb3c220
    return -1;
  801098:	be ff ff ff ff       	mov    $0xffffffff,%esi
  80109d:	e9 59 01 00 00       	jmp    8011fb <lwip_accept+0x1b1>
  }

  /* get the IP address and port of the remote host */
  err = netconn_peer(newconn, &naddr, &port);
  8010a2:	c7 44 24 0c 00 00 00 	movl   $0x0,0xc(%esp)
  8010a9:	00 
  8010aa:	8d 45 e2             	lea    -0x1e(%ebp),%eax
  8010ad:	89 44 24 08          	mov    %eax,0x8(%esp)
  8010b1:	8d 45 e4             	lea    -0x1c(%ebp),%eax
  8010b4:	89 44 24 04          	mov    %eax,0x4(%esp)
  8010b8:	89 1c 24             	mov    %ebx,(%esp)
  8010bb:	e8 eb a4 00 00       	call   80b5ab <netconn_getaddr>
  8010c0:	89 c6                	mov    %eax,%esi
  if (err != ERR_OK) {
  8010c2:	84 c0                	test   %al,%al
  8010c4:	74 34                	je     8010fa <lwip_accept+0xb0>
    netconn_delete(newconn);
  8010c6:	89 1c 24             	mov    %ebx,(%esp)
  8010c9:	e8 76 a4 00 00       	call   80b544 <netconn_delete>
    sock_set_errno(sock, err_to_errno(err));
  8010ce:	89 f0                	mov    %esi,%eax
  8010d0:	0f be f0             	movsbl %al,%esi
  8010d3:	f7 de                	neg    %esi
  8010d5:	83 fe 0e             	cmp    $0xe,%esi
  8010d8:	77 09                	ja     8010e3 <lwip_accept+0x99>
  8010da:	8b 04 b5 c0 1c 81 00 	mov    0x811cc0(,%esi,4),%eax
  8010e1:	eb 05                	jmp    8010e8 <lwip_accept+0x9e>
  8010e3:	b8 05 00 00 00       	mov    $0x5,%eax
  8010e8:	89 47 10             	mov    %eax,0x10(%edi)
  8010eb:	a3 20 c2 b3 00       	mov    %eax,0xb3c220
    return -1;
  8010f0:	be ff ff ff ff       	mov    $0xffffffff,%esi
  8010f5:	e9 01 01 00 00       	jmp    8011fb <lwip_accept+0x1b1>
  }

  memset(&sin, 0, sizeof(sin));
  8010fa:	c7 44 24 08 10 00 00 	movl   $0x10,0x8(%esp)
  801101:	00 
  801102:	c7 44 24 04 00 00 00 	movl   $0x0,0x4(%esp)
  801109:	00 
  80110a:	8d 45 d0             	lea    -0x30(%ebp),%eax
  80110d:	89 04 24             	mov    %eax,(%esp)
  801110:	e8 3d e5 00 00       	call   80f652 <memset>
  sin.sin_len = sizeof(sin);
  801115:	c6 45 d0 10          	movb   $0x10,-0x30(%ebp)
  sin.sin_family = AF_INET;
  801119:	c6 45 d1 02          	movb   $0x2,-0x2f(%ebp)
  sin.sin_port = htons(port);
  80111d:	0f b7 45 e2          	movzwl -0x1e(%ebp),%eax
  801121:	89 04 24             	mov    %eax,(%esp)
  801124:	e8 30 6b 00 00       	call   807c59 <htons>
  801129:	66 89 45 d2          	mov    %ax,-0x2e(%ebp)
  sin.sin_addr.s_addr = naddr.addr;
  80112d:	8b 45 e4             	mov    -0x1c(%ebp),%eax
  801130:	89 45 d4             	mov    %eax,-0x2c(%ebp)

  if (*addrlen > sizeof(sin))
  801133:	8b 55 10             	mov    0x10(%ebp),%edx
  801136:	83 3a 10             	cmpl   $0x10,(%edx)
  801139:	76 06                	jbe    801141 <lwip_accept+0xf7>
    *addrlen = sizeof(sin);
  80113b:	c7 02 10 00 00 00    	movl   $0x10,(%edx)

  SMEMCPY(addr, &sin, *addrlen);
  801141:	8b 55 10             	mov    0x10(%ebp),%edx
  801144:	8b 02                	mov    (%edx),%eax
  801146:	89 44 24 08          	mov    %eax,0x8(%esp)
  80114a:	8d 45 d0             	lea    -0x30(%ebp),%eax
  80114d:	89 44 24 04          	mov    %eax,0x4(%esp)
  801151:	8b 45 0c             	mov    0xc(%ebp),%eax
  801154:	89 04 24             	mov    %eax,(%esp)
  801157:	e8 aa e5 00 00       	call   80f706 <memcpy>

  newsock = alloc_socket(newconn);
  80115c:	89 d8                	mov    %ebx,%eax
  80115e:	e8 9f fc ff ff       	call   800e02 <alloc_socket>
  801163:	89 c6                	mov    %eax,%esi
  if (newsock == -1) {
  801165:	83 f8 ff             	cmp    $0xffffffff,%eax
  801168:	75 1b                	jne    801185 <lwip_accept+0x13b>
    netconn_delete(newconn);
  80116a:	89 1c 24             	mov    %ebx,(%esp)
  80116d:	e8 d2 a3 00 00       	call   80b544 <netconn_delete>
    sock_set_errno(sock, ENFILE);
  801172:	c7 47 10 17 00 00 00 	movl   $0x17,0x10(%edi)
  801179:	c7 05 20 c2 b3 00 17 	movl   $0x17,0xb3c220
  801180:	00 00 00 
    return -1;
  801183:	eb 76                	jmp    8011fb <lwip_accept+0x1b1>
  }
  LWIP_ASSERT("invalid socket index", (newsock >= 0) && (newsock < NUM_SOCKETS));
  801185:	83 f8 1f             	cmp    $0x1f,%eax
  801188:	76 1c                	jbe    8011a6 <lwip_accept+0x15c>
  80118a:	c7 44 24 08 2a 1c 81 	movl   $0x811c2a,0x8(%esp)
  801191:	00 
  801192:	c7 44 24 04 25 01 00 	movl   $0x125,0x4(%esp)
  801199:	00 
  80119a:	c7 04 24 05 1c 81 00 	movl   $0x811c05,(%esp)
  8011a1:	e8 da dc 00 00       	call   80ee80 <_panic>
  newconn->callback = event_callback;
  8011a6:	c7 43 2c a9 0e 80 00 	movl   $0x800ea9,0x2c(%ebx)
  nsock = &sockets[newsock];
  8011ad:	8d 04 80             	lea    (%eax,%eax,4),%eax
  8011b0:	8d 04 85 80 60 81 00 	lea    0x816080(,%eax,4),%eax
  8011b7:	89 45 c4             	mov    %eax,-0x3c(%ebp)
  LWIP_ASSERT("invalid socket pointer", nsock != NULL);

  sys_sem_wait(socksem);
  8011ba:	a1 60 60 81 00       	mov    0x816060,%eax
  8011bf:	89 04 24             	mov    %eax,(%esp)
  8011c2:	e8 a5 44 00 00       	call   80566c <sys_sem_wait>
  /* See event_callback: If data comes in right away after an accept, even
   * though the server task might not have created a new socket yet.
   * In that case, newconn->socket is counted down (newconn->socket--),
   * so nsock->rcvevent is >= 1 here!
   */
  nsock->rcvevent += -1 - newconn->socket;
  8011c7:	8b 43 1c             	mov    0x1c(%ebx),%eax
  8011ca:	f7 d0                	not    %eax
  8011cc:	8b 55 c4             	mov    -0x3c(%ebp),%edx
  8011cf:	66 01 42 0a          	add    %ax,0xa(%edx)
  newconn->socket = newsock;
  8011d3:	89 73 1c             	mov    %esi,0x1c(%ebx)
  sys_sem_signal(socksem);
  8011d6:	a1 60 60 81 00       	mov    0x816060,%eax
  8011db:	89 04 24             	mov    %eax,(%esp)
  8011de:	e8 de 95 00 00       	call   80a7c1 <sys_sem_signal>

  LWIP_DEBUGF(SOCKETS_DEBUG, ("lwip_accept(%d) returning new sock=%d addr=", s, newsock));
  //ip_addr_debug_print(SOCKETS_DEBUG, &naddr);
  LWIP_DEBUGF(SOCKETS_DEBUG, (" port=%u\n", port));

  sock_set_errno(sock, 0);
  8011e3:	c7 47 10 00 00 00 00 	movl   $0x0,0x10(%edi)
  8011ea:	c7 05 20 c2 b3 00 00 	movl   $0x0,0xb3c220
  8011f1:	00 00 00 
  return newsock;
  8011f4:	eb 05                	jmp    8011fb <lwip_accept+0x1b1>
  err_t err;

  LWIP_DEBUGF(SOCKETS_DEBUG, ("lwip_accept(%d)...\n", s));
  sock = get_socket(s);
  if (!sock)
    return -1;
  8011f6:	be ff ff ff ff       	mov    $0xffffffff,%esi
  //ip_addr_debug_print(SOCKETS_DEBUG, &naddr);
  LWIP_DEBUGF(SOCKETS_DEBUG, (" port=%u\n", port));

  sock_set_errno(sock, 0);
  return newsock;
}
  8011fb:	89 f0                	mov    %esi,%eax
  8011fd:	83 c4 4c             	add    $0x4c,%esp
  801200:	5b                   	pop    %ebx
  801201:	5e                   	pop    %esi
  801202:	5f                   	pop    %edi
  801203:	5d                   	pop    %ebp
  801204:	c3                   	ret    

00801205 <lwip_bind>:

int
lwip_bind(int s, struct sockaddr *name, socklen_t namelen)
{
  801205:	55                   	push   %ebp
  801206:	89 e5                	mov    %esp,%ebp
  801208:	56                   	push   %esi
  801209:	53                   	push   %ebx
  80120a:	83 ec 20             	sub    $0x20,%esp
  80120d:	8b 5d 0c             	mov    0xc(%ebp),%ebx
  struct lwip_socket *sock;
  struct ip_addr local_addr;
  u16_t local_port;
  err_t err;

  sock = get_socket(s);
  801210:	8b 45 08             	mov    0x8(%ebp),%eax
  801213:	e8 28 f7 ff ff       	call   800940 <get_socket>
  801218:	89 c6                	mov    %eax,%esi
  if (!sock)
  80121a:	85 c0                	test   %eax,%eax
  80121c:	0f 84 95 00 00 00    	je     8012b7 <lwip_bind+0xb2>
    return -1;

  LWIP_ERROR("lwip_bind: invalid address", ((namelen == sizeof(struct sockaddr_in)) &&
  801222:	83 7d 10 10          	cmpl   $0x10,0x10(%ebp)
  801226:	75 06                	jne    80122e <lwip_bind+0x29>
  801228:	80 7b 01 02          	cmpb   $0x2,0x1(%ebx)
  80122c:	74 1c                	je     80124a <lwip_bind+0x45>
  80122e:	c7 44 24 08 3f 1c 81 	movl   $0x811c3f,0x8(%esp)
  801235:	00 
  801236:	c7 44 24 04 4a 01 00 	movl   $0x14a,0x4(%esp)
  80123d:	00 
  80123e:	c7 04 24 05 1c 81 00 	movl   $0x811c05,(%esp)
  801245:	e8 36 dc 00 00       	call   80ee80 <_panic>
             ((((struct sockaddr_in *)name)->sin_family) == AF_INET)),
             sock_set_errno(sock, err_to_errno(ERR_ARG)); return -1;);

  local_addr.addr = ((struct sockaddr_in *)name)->sin_addr.s_addr;
  80124a:	8b 43 04             	mov    0x4(%ebx),%eax
  80124d:	89 45 f4             	mov    %eax,-0xc(%ebp)

  LWIP_DEBUGF(SOCKETS_DEBUG, ("lwip_bind(%d, addr=", s));
  //ip_addr_debug_print(SOCKETS_DEBUG, &local_addr);
  LWIP_DEBUGF(SOCKETS_DEBUG, (" port=%u)\n", ntohs(local_port)));

  err = netconn_bind(sock->conn, &local_addr, ntohs(local_port));
  801250:	0f b7 43 02          	movzwl 0x2(%ebx),%eax
  801254:	89 04 24             	mov    %eax,(%esp)
  801257:	e8 09 6a 00 00       	call   807c65 <ntohs>
  80125c:	0f b7 c0             	movzwl %ax,%eax
  80125f:	89 44 24 08          	mov    %eax,0x8(%esp)
  801263:	8d 45 f4             	lea    -0xc(%ebp),%eax
  801266:	89 44 24 04          	mov    %eax,0x4(%esp)
  80126a:	8b 06                	mov    (%esi),%eax
  80126c:	89 04 24             	mov    %eax,(%esp)
  80126f:	e8 d1 a3 00 00       	call   80b645 <netconn_bind>

  if (err != ERR_OK) {
  801274:	84 c0                	test   %al,%al
  801276:	74 27                	je     80129f <lwip_bind+0x9a>
    LWIP_DEBUGF(SOCKETS_DEBUG, ("lwip_bind(%d) failed, err=%d\n", s, err));
    sock_set_errno(sock, err_to_errno(err));
  801278:	0f be c0             	movsbl %al,%eax
  80127b:	f7 d8                	neg    %eax
  80127d:	83 f8 0e             	cmp    $0xe,%eax
  801280:	77 09                	ja     80128b <lwip_bind+0x86>
  801282:	8b 04 85 c0 1c 81 00 	mov    0x811cc0(,%eax,4),%eax
  801289:	eb 05                	jmp    801290 <lwip_bind+0x8b>
  80128b:	b8 05 00 00 00       	mov    $0x5,%eax
  801290:	89 46 10             	mov    %eax,0x10(%esi)
  801293:	a3 20 c2 b3 00       	mov    %eax,0xb3c220
    return -1;
  801298:	b8 ff ff ff ff       	mov    $0xffffffff,%eax
  80129d:	eb 1d                	jmp    8012bc <lwip_bind+0xb7>
  }

  LWIP_DEBUGF(SOCKETS_DEBUG, ("lwip_bind(%d) succeeded\n", s));
  sock_set_errno(sock, 0);
  80129f:	c7 46 10 00 00 00 00 	movl   $0x0,0x10(%esi)
  8012a6:	c7 05 20 c2 b3 00 00 	movl   $0x0,0xb3c220
  8012ad:	00 00 00 
  return 0;
  8012b0:	b8 00 00 00 00       	mov    $0x0,%eax
  8012b5:	eb 05                	jmp    8012bc <lwip_bind+0xb7>
  u16_t local_port;
  err_t err;

  sock = get_socket(s);
  if (!sock)
    return -1;
  8012b7:	b8 ff ff ff ff       	mov    $0xffffffff,%eax
  }

  LWIP_DEBUGF(SOCKETS_DEBUG, ("lwip_bind(%d) succeeded\n", s));
  sock_set_errno(sock, 0);
  return 0;
}
  8012bc:	83 c4 20             	add    $0x20,%esp
  8012bf:	5b                   	pop    %ebx
  8012c0:	5e                   	pop    %esi
  8012c1:	5d                   	pop    %ebp
  8012c2:	c3                   	ret    

008012c3 <lwip_close>:

int
lwip_close(int s)
{
  8012c3:	55                   	push   %ebp
  8012c4:	89 e5                	mov    %esp,%ebp
  8012c6:	53                   	push   %ebx
  8012c7:	83 ec 14             	sub    $0x14,%esp
  struct lwip_socket *sock;

  LWIP_DEBUGF(SOCKETS_DEBUG, ("lwip_close(%d)\n", s));

  sock = get_socket(s);
  8012ca:	8b 45 08             	mov    0x8(%ebp),%eax
  8012cd:	e8 6e f6 ff ff       	call   800940 <get_socket>
  8012d2:	89 c3                	mov    %eax,%ebx
  if (!sock) {
  8012d4:	85 c0                	test   %eax,%eax
  8012d6:	74 5e                	je     801336 <lwip_close+0x73>
    return -1;
  }

  netconn_delete(sock->conn);
  8012d8:	8b 00                	mov    (%eax),%eax
  8012da:	89 04 24             	mov    %eax,(%esp)
  8012dd:	e8 62 a2 00 00       	call   80b544 <netconn_delete>

  sys_sem_wait(socksem);
  8012e2:	a1 60 60 81 00       	mov    0x816060,%eax
  8012e7:	89 04 24             	mov    %eax,(%esp)
  8012ea:	e8 7d 43 00 00       	call   80566c <sys_sem_wait>
  if (sock->lastdata) {
  8012ef:	8b 43 04             	mov    0x4(%ebx),%eax
  8012f2:	85 c0                	test   %eax,%eax
  8012f4:	74 08                	je     8012fe <lwip_close+0x3b>
    netbuf_delete(sock->lastdata);
  8012f6:	89 04 24             	mov    %eax,(%esp)
  8012f9:	e8 e6 14 00 00       	call   8027e4 <netbuf_delete>
  }
  sock->lastdata   = NULL;
  8012fe:	c7 43 04 00 00 00 00 	movl   $0x0,0x4(%ebx)
  sock->lastoffset = 0;
  801305:	66 c7 43 08 00 00    	movw   $0x0,0x8(%ebx)
  sock->conn       = NULL;
  80130b:	c7 03 00 00 00 00    	movl   $0x0,(%ebx)
  sock_set_errno(sock, 0);
  801311:	c7 43 10 00 00 00 00 	movl   $0x0,0x10(%ebx)
  801318:	c7 05 20 c2 b3 00 00 	movl   $0x0,0xb3c220
  80131f:	00 00 00 
  sys_sem_signal(socksem);
  801322:	a1 60 60 81 00       	mov    0x816060,%eax
  801327:	89 04 24             	mov    %eax,(%esp)
  80132a:	e8 92 94 00 00       	call   80a7c1 <sys_sem_signal>
  return 0;
  80132f:	b8 00 00 00 00       	mov    $0x0,%eax
  801334:	eb 05                	jmp    80133b <lwip_close+0x78>

  LWIP_DEBUGF(SOCKETS_DEBUG, ("lwip_close(%d)\n", s));

  sock = get_socket(s);
  if (!sock) {
    return -1;
  801336:	b8 ff ff ff ff       	mov    $0xffffffff,%eax
  sock->lastoffset = 0;
  sock->conn       = NULL;
  sock_set_errno(sock, 0);
  sys_sem_signal(socksem);
  return 0;
}
  80133b:	83 c4 14             	add    $0x14,%esp
  80133e:	5b                   	pop    %ebx
  80133f:	5d                   	pop    %ebp
  801340:	c3                   	ret    

00801341 <lwip_connect>:

int
lwip_connect(int s, const struct sockaddr *name, socklen_t namelen)
{
  801341:	55                   	push   %ebp
  801342:	89 e5                	mov    %esp,%ebp
  801344:	56                   	push   %esi
  801345:	53                   	push   %ebx
  801346:	83 ec 20             	sub    $0x20,%esp
  801349:	8b 5d 0c             	mov    0xc(%ebp),%ebx
  struct lwip_socket *sock;
  err_t err;

  sock = get_socket(s);
  80134c:	8b 45 08             	mov    0x8(%ebp),%eax
  80134f:	e8 ec f5 ff ff       	call   800940 <get_socket>
  801354:	89 c6                	mov    %eax,%esi
  if (!sock)
  801356:	85 c0                	test   %eax,%eax
  801358:	0f 84 95 00 00 00    	je     8013f3 <lwip_connect+0xb2>
    return -1;

  LWIP_ERROR("lwip_connect: invalid address", ((namelen == sizeof(struct sockaddr_in)) &&
  80135e:	83 7d 10 10          	cmpl   $0x10,0x10(%ebp)
  801362:	75 06                	jne    80136a <lwip_connect+0x29>
  801364:	80 7b 01 02          	cmpb   $0x2,0x1(%ebx)
  801368:	74 1c                	je     801386 <lwip_connect+0x45>
  80136a:	c7 44 24 08 5a 1c 81 	movl   $0x811c5a,0x8(%esp)
  801371:	00 
  801372:	c7 44 24 04 86 01 00 	movl   $0x186,0x4(%esp)
  801379:	00 
  80137a:	c7 04 24 05 1c 81 00 	movl   $0x811c05,(%esp)
  801381:	e8 fa da 00 00       	call   80ee80 <_panic>
    err = netconn_disconnect(sock->conn);
  } else {
    struct ip_addr remote_addr;
    u16_t remote_port;

    remote_addr.addr = ((struct sockaddr_in *)name)->sin_addr.s_addr;
  801386:	8b 43 04             	mov    0x4(%ebx),%eax
  801389:	89 45 f4             	mov    %eax,-0xc(%ebp)

    LWIP_DEBUGF(SOCKETS_DEBUG, ("lwip_connect(%d, addr=", s));
    //ip_addr_debug_print(SOCKETS_DEBUG, &remote_addr);
    LWIP_DEBUGF(SOCKETS_DEBUG, (" port=%u)\n", ntohs(remote_port)));

    err = netconn_connect(sock->conn, &remote_addr, ntohs(remote_port));
  80138c:	0f b7 43 02          	movzwl 0x2(%ebx),%eax
  801390:	89 04 24             	mov    %eax,(%esp)
  801393:	e8 cd 68 00 00       	call   807c65 <ntohs>
  801398:	0f b7 c0             	movzwl %ax,%eax
  80139b:	89 44 24 08          	mov    %eax,0x8(%esp)
  80139f:	8d 45 f4             	lea    -0xc(%ebp),%eax
  8013a2:	89 44 24 04          	mov    %eax,0x4(%esp)
  8013a6:	8b 06                	mov    (%esi),%eax
  8013a8:	89 04 24             	mov    %eax,(%esp)
  8013ab:	e8 ea a2 00 00       	call   80b69a <netconn_connect>
  }

  if (err != ERR_OK) {
  8013b0:	84 c0                	test   %al,%al
  8013b2:	74 27                	je     8013db <lwip_connect+0x9a>
    LWIP_DEBUGF(SOCKETS_DEBUG, ("lwip_connect(%d) failed, err=%d\n", s, err));
    sock_set_errno(sock, err_to_errno(err));
  8013b4:	0f be c0             	movsbl %al,%eax
  8013b7:	f7 d8                	neg    %eax
  8013b9:	83 f8 0e             	cmp    $0xe,%eax
  8013bc:	77 09                	ja     8013c7 <lwip_connect+0x86>
  8013be:	8b 04 85 c0 1c 81 00 	mov    0x811cc0(,%eax,4),%eax
  8013c5:	eb 05                	jmp    8013cc <lwip_connect+0x8b>
  8013c7:	b8 05 00 00 00       	mov    $0x5,%eax
  8013cc:	89 46 10             	mov    %eax,0x10(%esi)
  8013cf:	a3 20 c2 b3 00       	mov    %eax,0xb3c220
    return -1;
  8013d4:	b8 ff ff ff ff       	mov    $0xffffffff,%eax
  8013d9:	eb 1d                	jmp    8013f8 <lwip_connect+0xb7>
  }

  LWIP_DEBUGF(SOCKETS_DEBUG, ("lwip_connect(%d) succeeded\n", s));
  sock_set_errno(sock, 0);
  8013db:	c7 46 10 00 00 00 00 	movl   $0x0,0x10(%esi)
  8013e2:	c7 05 20 c2 b3 00 00 	movl   $0x0,0xb3c220
  8013e9:	00 00 00 
  return 0;
  8013ec:	b8 00 00 00 00       	mov    $0x0,%eax
  8013f1:	eb 05                	jmp    8013f8 <lwip_connect+0xb7>
  struct lwip_socket *sock;
  err_t err;

  sock = get_socket(s);
  if (!sock)
    return -1;
  8013f3:	b8 ff ff ff ff       	mov    $0xffffffff,%eax
  }

  LWIP_DEBUGF(SOCKETS_DEBUG, ("lwip_connect(%d) succeeded\n", s));
  sock_set_errno(sock, 0);
  return 0;
}
  8013f8:	83 c4 20             	add    $0x20,%esp
  8013fb:	5b                   	pop    %ebx
  8013fc:	5e                   	pop    %esi
  8013fd:	5d                   	pop    %ebp
  8013fe:	c3                   	ret    

008013ff <lwip_listen>:
 * @param backlog (ATTENTION: need TCP_LISTEN_BACKLOG=1)
 * @return 0 on success, non-zero on failure
 */
int
lwip_listen(int s, int backlog)
{
  8013ff:	55                   	push   %ebp
  801400:	89 e5                	mov    %esp,%ebp
  801402:	56                   	push   %esi
  801403:	53                   	push   %ebx
  801404:	83 ec 10             	sub    $0x10,%esp
  801407:	8b 75 0c             	mov    0xc(%ebp),%esi
  struct lwip_socket *sock;
  err_t err;

  LWIP_DEBUGF(SOCKETS_DEBUG, ("lwip_listen(%d, backlog=%d)\n", s, backlog));

  sock = get_socket(s);
  80140a:	8b 45 08             	mov    0x8(%ebp),%eax
  80140d:	e8 2e f5 ff ff       	call   800940 <get_socket>
  801412:	89 c3                	mov    %eax,%ebx
  if (!sock)
  801414:	85 c0                	test   %eax,%eax
  801416:	74 6d                	je     801485 <lwip_listen+0x86>
  801418:	89 f0                	mov    %esi,%eax
  80141a:	85 f6                	test   %esi,%esi
  80141c:	79 05                	jns    801423 <lwip_listen+0x24>
  80141e:	b8 00 00 00 00       	mov    $0x0,%eax
  }
  if (backlog > 0xff) {
    backlog = 0xff;
  }

  err = netconn_listen_with_backlog(sock->conn, backlog);
  801423:	89 c2                	mov    %eax,%edx
  801425:	3d ff 00 00 00       	cmp    $0xff,%eax
  80142a:	7e 05                	jle    801431 <lwip_listen+0x32>
  80142c:	ba ff 00 00 00       	mov    $0xff,%edx
  801431:	0f b6 d2             	movzbl %dl,%edx
  801434:	89 54 24 04          	mov    %edx,0x4(%esp)
  801438:	8b 03                	mov    (%ebx),%eax
  80143a:	89 04 24             	mov    %eax,(%esp)
  80143d:	e8 f5 a2 00 00       	call   80b737 <netconn_listen_with_backlog>

  if (err != ERR_OK) {
  801442:	84 c0                	test   %al,%al
  801444:	74 27                	je     80146d <lwip_listen+0x6e>
    LWIP_DEBUGF(SOCKETS_DEBUG, ("lwip_listen(%d) failed, err=%d\n", s, err));
    sock_set_errno(sock, err_to_errno(err));
  801446:	0f be c0             	movsbl %al,%eax
  801449:	f7 d8                	neg    %eax
  80144b:	83 f8 0e             	cmp    $0xe,%eax
  80144e:	77 09                	ja     801459 <lwip_listen+0x5a>
  801450:	8b 04 85 c0 1c 81 00 	mov    0x811cc0(,%eax,4),%eax
  801457:	eb 05                	jmp    80145e <lwip_listen+0x5f>
  801459:	b8 05 00 00 00       	mov    $0x5,%eax
  80145e:	89 43 10             	mov    %eax,0x10(%ebx)
  801461:	a3 20 c2 b3 00       	mov    %eax,0xb3c220
    return -1;
  801466:	b8 ff ff ff ff       	mov    $0xffffffff,%eax
  80146b:	eb 1d                	jmp    80148a <lwip_listen+0x8b>
  }

  sock_set_errno(sock, 0);
  80146d:	c7 43 10 00 00 00 00 	movl   $0x0,0x10(%ebx)
  801474:	c7 05 20 c2 b3 00 00 	movl   $0x0,0xb3c220
  80147b:	00 00 00 
  return 0;
  80147e:	b8 00 00 00 00       	mov    $0x0,%eax
  801483:	eb 05                	jmp    80148a <lwip_listen+0x8b>

  LWIP_DEBUGF(SOCKETS_DEBUG, ("lwip_listen(%d, backlog=%d)\n", s, backlog));

  sock = get_socket(s);
  if (!sock)
    return -1;
  801485:	b8 ff ff ff ff       	mov    $0xffffffff,%eax
    return -1;
  }

  sock_set_errno(sock, 0);
  return 0;
}
  80148a:	83 c4 10             	add    $0x10,%esp
  80148d:	5b                   	pop    %ebx
  80148e:	5e                   	pop    %esi
  80148f:	5d                   	pop    %ebp
  801490:	c3                   	ret    

00801491 <lwip_recvfrom>:

int
lwip_recvfrom(int s, void *mem, int len, unsigned int flags,
        struct sockaddr *from, socklen_t *fromlen)
{
  801491:	55                   	push   %ebp
  801492:	89 e5                	mov    %esp,%ebp
  801494:	57                   	push   %edi
  801495:	56                   	push   %esi
  801496:	53                   	push   %ebx
  801497:	83 ec 5c             	sub    $0x5c,%esp
  80149a:	8b 75 14             	mov    0x14(%ebp),%esi
  struct ip_addr     *addr;
  u16_t               port;
  u8_t                done = 0;

  LWIP_DEBUGF(SOCKETS_DEBUG, ("lwip_recvfrom(%d, %p, %d, 0x%x, ..)\n", s, mem, len, flags));
  sock = get_socket(s);
  80149d:	8b 45 08             	mov    0x8(%ebp),%eax
  8014a0:	e8 9b f4 ff ff       	call   800940 <get_socket>
  8014a5:	89 c3                	mov    %eax,%ebx
  if (!sock)
  8014a7:	85 c0                	test   %eax,%eax
  8014a9:	0f 84 36 02 00 00    	je     8016e5 <lwip_recvfrom+0x254>
  8014af:	bf 00 00 00 00       	mov    $0x0,%edi
    /* Check if there is data left from the last recv operation. */
    if (sock->lastdata) {
      buf = sock->lastdata;
    } else {
      /* If this is non-blocking call, then check first */
      if (((flags & MSG_DONTWAIT) || (sock->flags & O_NONBLOCK)) && !sock->rcvevent) {
  8014b4:	89 f0                	mov    %esi,%eax
  8014b6:	83 e0 08             	and    $0x8,%eax
  8014b9:	89 45 b0             	mov    %eax,-0x50(%ebp)
    } else {
      done = 1;
    }

    /* If we don't peek the incoming message... */
    if ((flags & MSG_PEEK)==0) {
  8014bc:	83 e6 01             	and    $0x1,%esi
  8014bf:	89 75 b4             	mov    %esi,-0x4c(%ebp)
    return -1;

  do {
    LWIP_DEBUGF(SOCKETS_DEBUG, ("lwip_recvfrom: top while sock->lastdata=%p\n", (void*)sock->lastdata));
    /* Check if there is data left from the last recv operation. */
    if (sock->lastdata) {
  8014c2:	8b 43 04             	mov    0x4(%ebx),%eax
  8014c5:	89 45 c4             	mov    %eax,-0x3c(%ebp)
  8014c8:	85 c0                	test   %eax,%eax
  8014ca:	0f 85 82 00 00 00    	jne    801552 <lwip_recvfrom+0xc1>
      buf = sock->lastdata;
    } else {
      /* If this is non-blocking call, then check first */
      if (((flags & MSG_DONTWAIT) || (sock->flags & O_NONBLOCK)) && !sock->rcvevent) {
  8014d0:	83 7d b0 00          	cmpl   $0x0,-0x50(%ebp)
  8014d4:	75 06                	jne    8014dc <lwip_recvfrom+0x4b>
  8014d6:	f6 43 0f 08          	testb  $0x8,0xf(%ebx)
  8014da:	74 22                	je     8014fe <lwip_recvfrom+0x6d>
  8014dc:	66 83 7b 0a 00       	cmpw   $0x0,0xa(%ebx)
  8014e1:	75 1b                	jne    8014fe <lwip_recvfrom+0x6d>
        LWIP_DEBUGF(SOCKETS_DEBUG, ("lwip_recvfrom(%d): returning EWOULDBLOCK\n", s));
        sock_set_errno(sock, EWOULDBLOCK);
  8014e3:	c7 43 10 0b 00 00 00 	movl   $0xb,0x10(%ebx)
  8014ea:	c7 05 20 c2 b3 00 0b 	movl   $0xb,0xb3c220
  8014f1:	00 00 00 
        return -1;
  8014f4:	b8 ff ff ff ff       	mov    $0xffffffff,%eax
  8014f9:	e9 ec 01 00 00       	jmp    8016ea <lwip_recvfrom+0x259>
      }

      /* No data was left from the previous operation, so we try to get
      some from the network. */
      sock->lastdata = buf = netconn_recv(sock->conn);
  8014fe:	8b 03                	mov    (%ebx),%eax
  801500:	89 04 24             	mov    %eax,(%esp)
  801503:	e8 01 a3 00 00       	call   80b809 <netconn_recv>
  801508:	89 45 c4             	mov    %eax,-0x3c(%ebp)
  80150b:	89 43 04             	mov    %eax,0x4(%ebx)
      LWIP_DEBUGF(SOCKETS_DEBUG, ("lwip_recvfrom: netconn_recv netbuf=%p\n", (void*)buf));

      if (!buf) {
  80150e:	85 c0                	test   %eax,%eax
  801510:	75 40                	jne    801552 <lwip_recvfrom+0xc1>
        /* We should really do some error checking here. */
        LWIP_DEBUGF(SOCKETS_DEBUG, ("lwip_recvfrom(%d): buf == NULL!\n", s));
        sock_set_errno(sock, (((sock->conn->pcb.ip!=NULL) && (sock->conn->err==ERR_OK))?ETIMEDOUT:err_to_errno(sock->conn->err)));
  801512:	8b 03                	mov    (%ebx),%eax
  801514:	83 78 08 00          	cmpl   $0x0,0x8(%eax)
  801518:	74 06                	je     801520 <lwip_recvfrom+0x8f>
  80151a:	80 78 0c 00          	cmpb   $0x0,0xc(%eax)
  80151e:	74 14                	je     801534 <lwip_recvfrom+0xa3>
  801520:	0f be 40 0c          	movsbl 0xc(%eax),%eax
  801524:	f7 d8                	neg    %eax
  801526:	83 f8 0e             	cmp    $0xe,%eax
  801529:	77 10                	ja     80153b <lwip_recvfrom+0xaa>
  80152b:	8b 04 85 c0 1c 81 00 	mov    0x811cc0(,%eax,4),%eax
  801532:	eb 0c                	jmp    801540 <lwip_recvfrom+0xaf>
  801534:	b8 6e 00 00 00       	mov    $0x6e,%eax
  801539:	eb 05                	jmp    801540 <lwip_recvfrom+0xaf>
  80153b:	b8 05 00 00 00       	mov    $0x5,%eax
  801540:	89 43 10             	mov    %eax,0x10(%ebx)
  801543:	a3 20 c2 b3 00       	mov    %eax,0xb3c220
        return 0;
  801548:	b8 00 00 00 00       	mov    $0x0,%eax
  80154d:	e9 98 01 00 00       	jmp    8016ea <lwip_recvfrom+0x259>
      }
    }

    buflen = netbuf_len(buf);
  801552:	8b 55 c4             	mov    -0x3c(%ebp),%edx
  801555:	8b 02                	mov    (%edx),%eax
  801557:	8b 70 08             	mov    0x8(%eax),%esi
    LWIP_DEBUGF(SOCKETS_DEBUG, ("lwip_recvfrom: buflen=%d len=%d off=%d sock->lastoffset=%d\n", buflen, len, off, sock->lastoffset));

    buflen -= sock->lastoffset;
  80155a:	8b 53 08             	mov    0x8(%ebx),%edx
  80155d:	66 29 d6             	sub    %dx,%si

    if (len > buflen) {
  801560:	0f b7 ce             	movzwl %si,%ecx
  801563:	89 4d bc             	mov    %ecx,-0x44(%ebp)
  801566:	39 4d 10             	cmp    %ecx,0x10(%ebp)
  801569:	7f 03                	jg     80156e <lwip_recvfrom+0xdd>
      copylen = buflen;
    } else {
      copylen = len;
  80156b:	8b 75 10             	mov    0x10(%ebp),%esi
    }

    /* copy the contents of the received buffer into
    the supplied memory pointer mem */
    netbuf_copy_partial(buf, (u8_t*)mem + off, copylen, sock->lastoffset);
  80156e:	0f b7 ce             	movzwl %si,%ecx
  801571:	89 4d c0             	mov    %ecx,-0x40(%ebp)
  801574:	0f b7 d2             	movzwl %dx,%edx
  801577:	89 54 24 0c          	mov    %edx,0xc(%esp)
  80157b:	89 4c 24 08          	mov    %ecx,0x8(%esp)
  80157f:	0f b7 d7             	movzwl %di,%edx
  801582:	03 55 0c             	add    0xc(%ebp),%edx
  801585:	89 54 24 04          	mov    %edx,0x4(%esp)
  801589:	89 04 24             	mov    %eax,(%esp)
  80158c:	e8 56 3f 00 00       	call   8054e7 <pbuf_copy_partial>

    off += copylen;
  801591:	01 f7                	add    %esi,%edi

    if (netconn_type(sock->conn) == NETCONN_TCP) {
  801593:	8b 03                	mov    (%ebx),%eax
  801595:	89 04 24             	mov    %eax,(%esp)
  801598:	e8 e1 9f 00 00       	call   80b57e <netconn_type>
  80159d:	83 f8 10             	cmp    $0x10,%eax
  8015a0:	75 22                	jne    8015c4 <lwip_recvfrom+0x133>
      len -= copylen;
  8015a2:	8b 45 c0             	mov    -0x40(%ebp),%eax
  8015a5:	29 45 10             	sub    %eax,0x10(%ebp)
      if ( (len <= 0) || (buf->p->flags & PBUF_FLAG_PUSH) || !sock->rcvevent) {
  8015a8:	83 7d 10 00          	cmpl   $0x0,0x10(%ebp)
  8015ac:	7e 1c                	jle    8015ca <lwip_recvfrom+0x139>
  8015ae:	8b 55 c4             	mov    -0x3c(%ebp),%edx
  8015b1:	8b 02                	mov    (%edx),%eax
  8015b3:	f6 40 0d 01          	testb  $0x1,0xd(%eax)
  8015b7:	75 17                	jne    8015d0 <lwip_recvfrom+0x13f>
  8015b9:	66 83 7b 0a 00       	cmpw   $0x0,0xa(%ebx)
  8015be:	0f 94 45 bb          	sete   -0x45(%ebp)
  8015c2:	eb 10                	jmp    8015d4 <lwip_recvfrom+0x143>
        done = 1;
      }
    } else {
      done = 1;
  8015c4:	c6 45 bb 01          	movb   $0x1,-0x45(%ebp)
  8015c8:	eb 0a                	jmp    8015d4 <lwip_recvfrom+0x143>
    off += copylen;

    if (netconn_type(sock->conn) == NETCONN_TCP) {
      len -= copylen;
      if ( (len <= 0) || (buf->p->flags & PBUF_FLAG_PUSH) || !sock->rcvevent) {
        done = 1;
  8015ca:	c6 45 bb 01          	movb   $0x1,-0x45(%ebp)
  8015ce:	eb 04                	jmp    8015d4 <lwip_recvfrom+0x143>
  8015d0:	c6 45 bb 01          	movb   $0x1,-0x45(%ebp)
    } else {
      done = 1;
    }

    /* If we don't peek the incoming message... */
    if ((flags & MSG_PEEK)==0) {
  8015d4:	83 7d b4 00          	cmpl   $0x0,-0x4c(%ebp)
  8015d8:	75 3f                	jne    801619 <lwip_recvfrom+0x188>
      /* If this is a TCP socket, check if there is data left in the
         buffer. If so, it should be saved in the sock structure for next
         time around. */
      if ((sock->conn->type == NETCONN_TCP) && (buflen - copylen > 0)) {
  8015da:	8b 03                	mov    (%ebx),%eax
  8015dc:	83 38 10             	cmpl   $0x10,(%eax)
  8015df:	75 16                	jne    8015f7 <lwip_recvfrom+0x166>
  8015e1:	8b 45 bc             	mov    -0x44(%ebp),%eax
  8015e4:	2b 45 c0             	sub    -0x40(%ebp),%eax
  8015e7:	85 c0                	test   %eax,%eax
  8015e9:	7e 0c                	jle    8015f7 <lwip_recvfrom+0x166>
        sock->lastdata = buf;
  8015eb:	8b 45 c4             	mov    -0x3c(%ebp),%eax
  8015ee:	89 43 04             	mov    %eax,0x4(%ebx)
        sock->lastoffset += copylen;
  8015f1:	66 01 73 08          	add    %si,0x8(%ebx)
        LWIP_DEBUGF(SOCKETS_DEBUG, ("lwip_recvfrom: lastdata now netbuf=%p\n", (void*)buf));
  8015f5:	eb 18                	jmp    80160f <lwip_recvfrom+0x17e>
      } else {
        sock->lastdata = NULL;
  8015f7:	c7 43 04 00 00 00 00 	movl   $0x0,0x4(%ebx)
        sock->lastoffset = 0;
  8015fe:	66 c7 43 08 00 00    	movw   $0x0,0x8(%ebx)
        LWIP_DEBUGF(SOCKETS_DEBUG, ("lwip_recvfrom: deleting netbuf=%p\n", (void*)buf));
        netbuf_delete(buf);
  801604:	8b 45 c4             	mov    -0x3c(%ebp),%eax
  801607:	89 04 24             	mov    %eax,(%esp)
  80160a:	e8 d5 11 00 00       	call   8027e4 <netbuf_delete>
      }
    } else {
      done = 1;
    }
  } while (!done);
  80160f:	80 7d bb 00          	cmpb   $0x0,-0x45(%ebp)
  801613:	0f 84 a9 fe ff ff    	je     8014c2 <lwip_recvfrom+0x31>

  /* Check to see from where the data was.*/
  if (from && fromlen) {
  801619:	83 7d 18 00          	cmpl   $0x0,0x18(%ebp)
  80161d:	0f 84 ac 00 00 00    	je     8016cf <lwip_recvfrom+0x23e>
  801623:	83 7d 1c 00          	cmpl   $0x0,0x1c(%ebp)
  801627:	0f 84 a2 00 00 00    	je     8016cf <lwip_recvfrom+0x23e>
    struct sockaddr_in sin;

    if (netconn_type(sock->conn) == NETCONN_TCP) {
  80162d:	8b 03                	mov    (%ebx),%eax
  80162f:	89 04 24             	mov    %eax,(%esp)
  801632:	e8 47 9f 00 00       	call   80b57e <netconn_type>
  801637:	83 f8 10             	cmp    $0x10,%eax
  80163a:	75 25                	jne    801661 <lwip_recvfrom+0x1d0>
      addr = (struct ip_addr*)&(sin.sin_addr.s_addr);
      netconn_getaddr(sock->conn, addr, &port, 0);
  80163c:	c7 44 24 0c 00 00 00 	movl   $0x0,0xc(%esp)
  801643:	00 
  801644:	8d 45 e6             	lea    -0x1a(%ebp),%eax
  801647:	89 44 24 08          	mov    %eax,0x8(%esp)
  /* Check to see from where the data was.*/
  if (from && fromlen) {
    struct sockaddr_in sin;

    if (netconn_type(sock->conn) == NETCONN_TCP) {
      addr = (struct ip_addr*)&(sin.sin_addr.s_addr);
  80164b:	8d 45 d8             	lea    -0x28(%ebp),%eax
  80164e:	89 44 24 04          	mov    %eax,0x4(%esp)
      netconn_getaddr(sock->conn, addr, &port, 0);
  801652:	8b 03                	mov    (%ebx),%eax
  801654:	89 04 24             	mov    %eax,(%esp)
  801657:	e8 4f 9f 00 00       	call   80b5ab <netconn_getaddr>
  /* Check to see from where the data was.*/
  if (from && fromlen) {
    struct sockaddr_in sin;

    if (netconn_type(sock->conn) == NETCONN_TCP) {
      addr = (struct ip_addr*)&(sin.sin_addr.s_addr);
  80165c:	8d 75 d8             	lea    -0x28(%ebp),%esi
  80165f:	eb 0d                	jmp    80166e <lwip_recvfrom+0x1dd>
      netconn_getaddr(sock->conn, addr, &port, 0);
    } else {
      addr = netbuf_fromaddr(buf);
  801661:	8b 45 c4             	mov    -0x3c(%ebp),%eax
  801664:	8b 70 08             	mov    0x8(%eax),%esi
      port = netbuf_fromport(buf);
  801667:	8b 40 0c             	mov    0xc(%eax),%eax
  80166a:	66 89 45 e6          	mov    %ax,-0x1a(%ebp)
    }

    memset(&sin, 0, sizeof(sin));
  80166e:	c7 44 24 08 10 00 00 	movl   $0x10,0x8(%esp)
  801675:	00 
  801676:	c7 44 24 04 00 00 00 	movl   $0x0,0x4(%esp)
  80167d:	00 
  80167e:	8d 45 d4             	lea    -0x2c(%ebp),%eax
  801681:	89 04 24             	mov    %eax,(%esp)
  801684:	e8 c9 df 00 00       	call   80f652 <memset>
    sin.sin_len = sizeof(sin);
  801689:	c6 45 d4 10          	movb   $0x10,-0x2c(%ebp)
    sin.sin_family = AF_INET;
  80168d:	c6 45 d5 02          	movb   $0x2,-0x2b(%ebp)
    sin.sin_port = htons(port);
  801691:	0f b7 45 e6          	movzwl -0x1a(%ebp),%eax
  801695:	89 04 24             	mov    %eax,(%esp)
  801698:	e8 bc 65 00 00       	call   807c59 <htons>
  80169d:	66 89 45 d6          	mov    %ax,-0x2a(%ebp)
    sin.sin_addr.s_addr = addr->addr;
  8016a1:	8b 06                	mov    (%esi),%eax
  8016a3:	89 45 d8             	mov    %eax,-0x28(%ebp)

    if (*fromlen > sizeof(sin))
  8016a6:	8b 4d 1c             	mov    0x1c(%ebp),%ecx
  8016a9:	83 39 10             	cmpl   $0x10,(%ecx)
  8016ac:	76 06                	jbe    8016b4 <lwip_recvfrom+0x223>
      *fromlen = sizeof(sin);
  8016ae:	c7 01 10 00 00 00    	movl   $0x10,(%ecx)

    SMEMCPY(from, &sin, *fromlen);
  8016b4:	8b 55 1c             	mov    0x1c(%ebp),%edx
  8016b7:	8b 02                	mov    (%edx),%eax
  8016b9:	89 44 24 08          	mov    %eax,0x8(%esp)
  8016bd:	8d 45 d4             	lea    -0x2c(%ebp),%eax
  8016c0:	89 44 24 04          	mov    %eax,0x4(%esp)
  8016c4:	8b 4d 18             	mov    0x18(%ebp),%ecx
  8016c7:	89 0c 24             	mov    %ecx,(%esp)
  8016ca:	e8 37 e0 00 00       	call   80f706 <memcpy>
    //ip_addr_debug_print(SOCKETS_DEBUG, addr);
    LWIP_DEBUGF(SOCKETS_DEBUG, (" port=%u len=%u\n", port, off));
#endif /*  SOCKETS_DEBUG */
  }

  sock_set_errno(sock, 0);
  8016cf:	c7 43 10 00 00 00 00 	movl   $0x0,0x10(%ebx)
  8016d6:	c7 05 20 c2 b3 00 00 	movl   $0x0,0xb3c220
  8016dd:	00 00 00 
  return off;
  8016e0:	0f b7 c7             	movzwl %di,%eax
  8016e3:	eb 05                	jmp    8016ea <lwip_recvfrom+0x259>
  u8_t                done = 0;

  LWIP_DEBUGF(SOCKETS_DEBUG, ("lwip_recvfrom(%d, %p, %d, 0x%x, ..)\n", s, mem, len, flags));
  sock = get_socket(s);
  if (!sock)
    return -1;
  8016e5:	b8 ff ff ff ff       	mov    $0xffffffff,%eax
#endif /*  SOCKETS_DEBUG */
  }

  sock_set_errno(sock, 0);
  return off;
}
  8016ea:	83 c4 5c             	add    $0x5c,%esp
  8016ed:	5b                   	pop    %ebx
  8016ee:	5e                   	pop    %esi
  8016ef:	5f                   	pop    %edi
  8016f0:	5d                   	pop    %ebp
  8016f1:	c3                   	ret    

008016f2 <lwip_read>:

int
lwip_read(int s, void *mem, int len)
{
  8016f2:	55                   	push   %ebp
  8016f3:	89 e5                	mov    %esp,%ebp
  8016f5:	83 ec 28             	sub    $0x28,%esp
  return lwip_recvfrom(s, mem, len, 0, NULL, NULL);
  8016f8:	c7 44 24 14 00 00 00 	movl   $0x0,0x14(%esp)
  8016ff:	00 
  801700:	c7 44 24 10 00 00 00 	movl   $0x0,0x10(%esp)
  801707:	00 
  801708:	c7 44 24 0c 00 00 00 	movl   $0x0,0xc(%esp)
  80170f:	00 
  801710:	8b 45 10             	mov    0x10(%ebp),%eax
  801713:	89 44 24 08          	mov    %eax,0x8(%esp)
  801717:	8b 45 0c             	mov    0xc(%ebp),%eax
  80171a:	89 44 24 04          	mov    %eax,0x4(%esp)
  80171e:	8b 45 08             	mov    0x8(%ebp),%eax
  801721:	89 04 24             	mov    %eax,(%esp)
  801724:	e8 68 fd ff ff       	call   801491 <lwip_recvfrom>
}
  801729:	c9                   	leave  
  80172a:	c3                   	ret    

0080172b <lwip_recv>:

int
lwip_recv(int s, void *mem, int len, unsigned int flags)
{
  80172b:	55                   	push   %ebp
  80172c:	89 e5                	mov    %esp,%ebp
  80172e:	83 ec 28             	sub    $0x28,%esp
  return lwip_recvfrom(s, mem, len, flags, NULL, NULL);
  801731:	c7 44 24 14 00 00 00 	movl   $0x0,0x14(%esp)
  801738:	00 
  801739:	c7 44 24 10 00 00 00 	movl   $0x0,0x10(%esp)
  801740:	00 
  801741:	8b 45 14             	mov    0x14(%ebp),%eax
  801744:	89 44 24 0c          	mov    %eax,0xc(%esp)
  801748:	8b 45 10             	mov    0x10(%ebp),%eax
  80174b:	89 44 24 08          	mov    %eax,0x8(%esp)
  80174f:	8b 45 0c             	mov    0xc(%ebp),%eax
  801752:	89 44 24 04          	mov    %eax,0x4(%esp)
  801756:	8b 45 08             	mov    0x8(%ebp),%eax
  801759:	89 04 24             	mov    %eax,(%esp)
  80175c:	e8 30 fd ff ff       	call   801491 <lwip_recvfrom>
}
  801761:	c9                   	leave  
  801762:	c3                   	ret    

00801763 <lwip_sendto>:
}

int
lwip_sendto(int s, const void *data, int size, unsigned int flags,
       struct sockaddr *to, socklen_t tolen)
{
  801763:	55                   	push   %ebp
  801764:	89 e5                	mov    %esp,%ebp
  801766:	57                   	push   %edi
  801767:	56                   	push   %esi
  801768:	53                   	push   %ebx
  801769:	83 ec 3c             	sub    $0x3c,%esp
  80176c:	8b 7d 10             	mov    0x10(%ebp),%edi
  80176f:	8b 5d 18             	mov    0x18(%ebp),%ebx
#if !LWIP_TCPIP_CORE_LOCKING
  struct netbuf buf;
  u16_t remote_port;
#endif

  sock = get_socket(s);
  801772:	8b 45 08             	mov    0x8(%ebp),%eax
  801775:	e8 c6 f1 ff ff       	call   800940 <get_socket>
  80177a:	89 c6                	mov    %eax,%esi
  if (!sock)
  80177c:	85 c0                	test   %eax,%eax
  80177e:	0f 84 36 01 00 00    	je     8018ba <lwip_sendto+0x157>
    return -1;

  if (sock->conn->type==NETCONN_TCP) {
  801784:	8b 00                	mov    (%eax),%eax
  801786:	83 38 10             	cmpl   $0x10,(%eax)
  801789:	75 24                	jne    8017af <lwip_sendto+0x4c>
#if LWIP_TCP
    return lwip_send(s, data, size, flags);
  80178b:	8b 45 14             	mov    0x14(%ebp),%eax
  80178e:	89 44 24 0c          	mov    %eax,0xc(%esp)
  801792:	89 7c 24 08          	mov    %edi,0x8(%esp)
  801796:	8b 45 0c             	mov    0xc(%ebp),%eax
  801799:	89 44 24 04          	mov    %eax,0x4(%esp)
  80179d:	8b 45 08             	mov    0x8(%ebp),%eax
  8017a0:	89 04 24             	mov    %eax,(%esp)
  8017a3:	e8 34 01 00 00       	call   8018dc <lwip_send>
  8017a8:	89 c7                	mov    %eax,%edi
  8017aa:	e9 10 01 00 00       	jmp    8018bf <lwip_sendto+0x15c>
    sock_set_errno(sock, err_to_errno(ERR_ARG));
    return -1;
#endif /* LWIP_TCP */
  }

  LWIP_ASSERT("lwip_sendto: size must fit in u16_t",
  8017af:	81 ff ff ff 00 00    	cmp    $0xffff,%edi
  8017b5:	76 1c                	jbe    8017d3 <lwip_sendto+0x70>
  8017b7:	c7 44 24 08 98 1c 81 	movl   $0x811c98,0x8(%esp)
  8017be:	00 
  8017bf:	c7 44 24 04 97 02 00 	movl   $0x297,0x4(%esp)
  8017c6:	00 
  8017c7:	c7 04 24 05 1c 81 00 	movl   $0x811c05,(%esp)
  8017ce:	e8 ad d6 00 00       	call   80ee80 <_panic>
              ((size >= 0) && (size <= 0xffff)));
  LWIP_ERROR("lwip_sendto: invalid address", (((to == NULL) && (tolen == 0)) ||
  8017d3:	85 db                	test   %ebx,%ebx
  8017d5:	75 0a                	jne    8017e1 <lwip_sendto+0x7e>
  8017d7:	83 7d 1c 00          	cmpl   $0x0,0x1c(%ebp)
  8017db:	0f 84 e8 00 00 00    	je     8018c9 <lwip_sendto+0x166>
  8017e1:	83 7d 1c 10          	cmpl   $0x10,0x1c(%ebp)
  8017e5:	75 06                	jne    8017ed <lwip_sendto+0x8a>
  8017e7:	80 7b 01 02          	cmpb   $0x2,0x1(%ebx)
  8017eb:	74 1c                	je     801809 <lwip_sendto+0xa6>
  8017ed:	c7 44 24 08 78 1c 81 	movl   $0x811c78,0x8(%esp)
  8017f4:	00 
  8017f5:	c7 44 24 04 9b 02 00 	movl   $0x29b,0x4(%esp)
  8017fc:	00 
  8017fd:	c7 04 24 05 1c 81 00 	movl   $0x811c05,(%esp)
  801804:	e8 77 d6 00 00       	call   80ee80 <_panic>
      pbuf_free(p);
    }
  }
#else
  /* initialize a buffer */
  buf.p = buf.ptr = NULL;
  801809:	c7 45 d8 00 00 00 00 	movl   $0x0,-0x28(%ebp)
  801810:	c7 45 d4 00 00 00 00 	movl   $0x0,-0x2c(%ebp)
  if (to) {
  801817:	85 db                	test   %ebx,%ebx
  801819:	74 1e                	je     801839 <lwip_sendto+0xd6>
    remote_addr.addr = ((struct sockaddr_in *)to)->sin_addr.s_addr;
  80181b:	8b 43 04             	mov    0x4(%ebx),%eax
  80181e:	89 45 e4             	mov    %eax,-0x1c(%ebp)
    remote_port      = ntohs(((struct sockaddr_in *)to)->sin_port);
  801821:	0f b7 43 02          	movzwl 0x2(%ebx),%eax
  801825:	89 04 24             	mov    %eax,(%esp)
  801828:	e8 38 64 00 00       	call   807c65 <ntohs>
    buf.addr         = &remote_addr;
  80182d:	8d 55 e4             	lea    -0x1c(%ebp),%edx
  801830:	89 55 dc             	mov    %edx,-0x24(%ebp)
    buf.port         = remote_port;
  801833:	66 89 45 e0          	mov    %ax,-0x20(%ebp)
  801837:	eb 14                	jmp    80184d <lwip_sendto+0xea>
  } else {
    remote_addr.addr = 0;
  801839:	c7 45 e4 00 00 00 00 	movl   $0x0,-0x1c(%ebp)
    remote_port      = 0;
    buf.addr         = NULL;
  801840:	c7 45 dc 00 00 00 00 	movl   $0x0,-0x24(%ebp)
    buf.port         = 0;
  801847:	66 c7 45 e0 00 00    	movw   $0x0,-0x20(%ebp)
              s, data, size, flags));
  //ip_addr_debug_print(SOCKETS_DEBUG, &remote_addr);
  LWIP_DEBUGF(SOCKETS_DEBUG, (" port=%u\n", remote_port));
    
  /* make the buffer point to the data that should be sent */
  if ((err = netbuf_ref(&buf, data, size)) == ERR_OK) {
  80184d:	0f b7 c7             	movzwl %di,%eax
  801850:	89 44 24 08          	mov    %eax,0x8(%esp)
  801854:	8b 45 0c             	mov    0xc(%ebp),%eax
  801857:	89 44 24 04          	mov    %eax,0x4(%esp)
  80185b:	8d 45 d4             	lea    -0x2c(%ebp),%eax
  80185e:	89 04 24             	mov    %eax,(%esp)
  801861:	e8 9b 10 00 00       	call   802901 <netbuf_ref>
  801866:	0f be d8             	movsbl %al,%ebx
  801869:	85 db                	test   %ebx,%ebx
  80186b:	75 14                	jne    801881 <lwip_sendto+0x11e>
    /* send the data */
    err = netconn_send(sock->conn, &buf);
  80186d:	8d 45 d4             	lea    -0x2c(%ebp),%eax
  801870:	89 44 24 04          	mov    %eax,0x4(%esp)
  801874:	8b 06                	mov    (%esi),%eax
  801876:	89 04 24             	mov    %eax,(%esp)
  801879:	e8 34 a1 00 00       	call   80b9b2 <netconn_send>
  80187e:	0f be d8             	movsbl %al,%ebx
  }

  /* deallocated the buffer */
  if (buf.p != NULL) {
  801881:	8b 45 d4             	mov    -0x2c(%ebp),%eax
  801884:	85 c0                	test   %eax,%eax
  801886:	74 08                	je     801890 <lwip_sendto+0x12d>
    pbuf_free(buf.p);
  801888:	89 04 24             	mov    %eax,(%esp)
  80188b:	e8 c1 34 00 00       	call   804d51 <pbuf_free>
  }
#endif /* LWIP_TCPIP_CORE_LOCKING */
  sock_set_errno(sock, err_to_errno(err));
  801890:	89 d8                	mov    %ebx,%eax
  801892:	f7 d8                	neg    %eax
  801894:	83 f8 0e             	cmp    $0xe,%eax
  801897:	77 09                	ja     8018a2 <lwip_sendto+0x13f>
  801899:	8b 04 85 c0 1c 81 00 	mov    0x811cc0(,%eax,4),%eax
  8018a0:	eb 05                	jmp    8018a7 <lwip_sendto+0x144>
  8018a2:	b8 05 00 00 00       	mov    $0x5,%eax
  8018a7:	89 46 10             	mov    %eax,0x10(%esi)
  8018aa:	a3 20 c2 b3 00       	mov    %eax,0xb3c220
  return (err==ERR_OK?size:-1);
  8018af:	85 db                	test   %ebx,%ebx
  8018b1:	74 0c                	je     8018bf <lwip_sendto+0x15c>
  8018b3:	bf ff ff ff ff       	mov    $0xffffffff,%edi
  8018b8:	eb 05                	jmp    8018bf <lwip_sendto+0x15c>
  u16_t remote_port;
#endif

  sock = get_socket(s);
  if (!sock)
    return -1;
  8018ba:	bf ff ff ff ff       	mov    $0xffffffff,%edi
    pbuf_free(buf.p);
  }
#endif /* LWIP_TCPIP_CORE_LOCKING */
  sock_set_errno(sock, err_to_errno(err));
  return (err==ERR_OK?size:-1);
}
  8018bf:	89 f8                	mov    %edi,%eax
  8018c1:	83 c4 3c             	add    $0x3c,%esp
  8018c4:	5b                   	pop    %ebx
  8018c5:	5e                   	pop    %esi
  8018c6:	5f                   	pop    %edi
  8018c7:	5d                   	pop    %ebp
  8018c8:	c3                   	ret    
      pbuf_free(p);
    }
  }
#else
  /* initialize a buffer */
  buf.p = buf.ptr = NULL;
  8018c9:	c7 45 d8 00 00 00 00 	movl   $0x0,-0x28(%ebp)
  8018d0:	c7 45 d4 00 00 00 00 	movl   $0x0,-0x2c(%ebp)
  8018d7:	e9 5d ff ff ff       	jmp    801839 <lwip_sendto+0xd6>

008018dc <lwip_send>:
  return lwip_recvfrom(s, mem, len, flags, NULL, NULL);
}

int
lwip_send(int s, const void *data, int size, unsigned int flags)
{
  8018dc:	55                   	push   %ebp
  8018dd:	89 e5                	mov    %esp,%ebp
  8018df:	57                   	push   %edi
  8018e0:	56                   	push   %esi
  8018e1:	53                   	push   %ebx
  8018e2:	83 ec 2c             	sub    $0x2c,%esp
  8018e5:	8b 7d 0c             	mov    0xc(%ebp),%edi
  8018e8:	8b 75 10             	mov    0x10(%ebp),%esi
  err_t err;

  LWIP_DEBUGF(SOCKETS_DEBUG, ("lwip_send(%d, data=%p, size=%d, flags=0x%x)\n",
                              s, data, size, flags));

  sock = get_socket(s);
  8018eb:	8b 45 08             	mov    0x8(%ebp),%eax
  8018ee:	e8 4d f0 ff ff       	call   800940 <get_socket>
  8018f3:	89 c3                	mov    %eax,%ebx
  if (!sock)
  8018f5:	85 c0                	test   %eax,%eax
  8018f7:	0f 84 86 00 00 00    	je     801983 <lwip_send+0xa7>
    return -1;

  if (sock->conn->type!=NETCONN_TCP) {
  8018fd:	8b 00                	mov    (%eax),%eax
  8018ff:	83 38 10             	cmpl   $0x10,(%eax)
  801902:	74 2e                	je     801932 <lwip_send+0x56>
#if (LWIP_UDP || LWIP_RAW)
    return lwip_sendto(s, data, size, flags, NULL, 0);
  801904:	c7 44 24 14 00 00 00 	movl   $0x0,0x14(%esp)
  80190b:	00 
  80190c:	c7 44 24 10 00 00 00 	movl   $0x0,0x10(%esp)
  801913:	00 
  801914:	8b 45 14             	mov    0x14(%ebp),%eax
  801917:	89 44 24 0c          	mov    %eax,0xc(%esp)
  80191b:	89 74 24 08          	mov    %esi,0x8(%esp)
  80191f:	89 7c 24 04          	mov    %edi,0x4(%esp)
  801923:	8b 45 08             	mov    0x8(%ebp),%eax
  801926:	89 04 24             	mov    %eax,(%esp)
  801929:	e8 35 fe ff ff       	call   801763 <lwip_sendto>
  80192e:	89 c6                	mov    %eax,%esi
  801930:	eb 56                	jmp    801988 <lwip_send+0xac>
    sock_set_errno(sock, err_to_errno(ERR_ARG));
    return -1;
#endif /* (LWIP_UDP || LWIP_RAW) */
  }

  err = netconn_write(sock->conn, data, size, NETCONN_COPY | ((flags & MSG_MORE)?NETCONN_MORE:0));
  801932:	8b 55 14             	mov    0x14(%ebp),%edx
  801935:	83 e2 10             	and    $0x10,%edx
  801938:	83 fa 01             	cmp    $0x1,%edx
  80193b:	19 d2                	sbb    %edx,%edx
  80193d:	83 e2 fe             	and    $0xfffffffe,%edx
  801940:	83 c2 03             	add    $0x3,%edx
  801943:	89 54 24 0c          	mov    %edx,0xc(%esp)
  801947:	89 74 24 08          	mov    %esi,0x8(%esp)
  80194b:	89 7c 24 04          	mov    %edi,0x4(%esp)
  80194f:	89 04 24             	mov    %eax,(%esp)
  801952:	e8 d8 a0 00 00       	call   80ba2f <netconn_write>

  LWIP_DEBUGF(SOCKETS_DEBUG, ("lwip_send(%d) err=%d size=%d\n", s, err, size));
  sock_set_errno(sock, err_to_errno(err));
  801957:	0f be d0             	movsbl %al,%edx
  80195a:	f7 da                	neg    %edx
  80195c:	83 fa 0e             	cmp    $0xe,%edx
  80195f:	77 09                	ja     80196a <lwip_send+0x8e>
  801961:	8b 14 95 c0 1c 81 00 	mov    0x811cc0(,%edx,4),%edx
  801968:	eb 05                	jmp    80196f <lwip_send+0x93>
  80196a:	ba 05 00 00 00       	mov    $0x5,%edx
  80196f:	89 53 10             	mov    %edx,0x10(%ebx)
  801972:	89 15 20 c2 b3 00    	mov    %edx,0xb3c220
  return (err==ERR_OK?size:-1);
  801978:	84 c0                	test   %al,%al
  80197a:	74 0c                	je     801988 <lwip_send+0xac>
  80197c:	be ff ff ff ff       	mov    $0xffffffff,%esi
  801981:	eb 05                	jmp    801988 <lwip_send+0xac>
  LWIP_DEBUGF(SOCKETS_DEBUG, ("lwip_send(%d, data=%p, size=%d, flags=0x%x)\n",
                              s, data, size, flags));

  sock = get_socket(s);
  if (!sock)
    return -1;
  801983:	be ff ff ff ff       	mov    $0xffffffff,%esi
  err = netconn_write(sock->conn, data, size, NETCONN_COPY | ((flags & MSG_MORE)?NETCONN_MORE:0));

  LWIP_DEBUGF(SOCKETS_DEBUG, ("lwip_send(%d) err=%d size=%d\n", s, err, size));
  sock_set_errno(sock, err_to_errno(err));
  return (err==ERR_OK?size:-1);
}
  801988:	89 f0                	mov    %esi,%eax
  80198a:	83 c4 2c             	add    $0x2c,%esp
  80198d:	5b                   	pop    %ebx
  80198e:	5e                   	pop    %esi
  80198f:	5f                   	pop    %edi
  801990:	5d                   	pop    %ebp
  801991:	c3                   	ret    

00801992 <lwip_socket>:
  return (err==ERR_OK?size:-1);
}

int
lwip_socket(int domain, int type, int protocol)
{
  801992:	55                   	push   %ebp
  801993:	89 e5                	mov    %esp,%ebp
  801995:	56                   	push   %esi
  801996:	53                   	push   %ebx
  801997:	83 ec 10             	sub    $0x10,%esp
  80199a:	8b 45 0c             	mov    0xc(%ebp),%eax
  80199d:	8b 55 10             	mov    0x10(%ebp),%edx
  int i;

  LWIP_UNUSED_ARG(domain);

  /* create a netconn */
  switch (type) {
  8019a0:	83 f8 02             	cmp    $0x2,%eax
  8019a3:	74 2b                	je     8019d0 <lwip_socket+0x3e>
  8019a5:	83 f8 03             	cmp    $0x3,%eax
  8019a8:	74 07                	je     8019b1 <lwip_socket+0x1f>
  8019aa:	83 f8 01             	cmp    $0x1,%eax
  8019ad:	75 6c                	jne    801a1b <lwip_socket+0x89>
  8019af:	eb 4a                	jmp    8019fb <lwip_socket+0x69>
  case SOCK_RAW:
    conn = netconn_new_with_proto_and_callback(NETCONN_RAW, (u8_t)protocol, event_callback);
  8019b1:	c7 44 24 08 a9 0e 80 	movl   $0x800ea9,0x8(%esp)
  8019b8:	00 
  8019b9:	0f b6 d2             	movzbl %dl,%edx
  8019bc:	89 54 24 04          	mov    %edx,0x4(%esp)
  8019c0:	c7 04 24 40 00 00 00 	movl   $0x40,(%esp)
  8019c7:	e8 70 9a 00 00       	call   80b43c <netconn_new_with_proto_and_callback>
  8019cc:	89 c3                	mov    %eax,%ebx
    LWIP_DEBUGF(SOCKETS_DEBUG, ("lwip_socket(%s, SOCK_RAW, %d) = ",
                                 domain == PF_INET ? "PF_INET" : "UNKNOWN", protocol));
    break;
  8019ce:	eb 5c                	jmp    801a2c <lwip_socket+0x9a>
  case SOCK_DGRAM:
    conn = netconn_new_with_callback( (protocol == IPPROTO_UDPLITE) ?
  8019d0:	81 fa 88 00 00 00    	cmp    $0x88,%edx
  8019d6:	0f 94 c0             	sete   %al
  8019d9:	0f b6 c0             	movzbl %al,%eax
  8019dc:	83 c0 20             	add    $0x20,%eax
  8019df:	c7 44 24 08 a9 0e 80 	movl   $0x800ea9,0x8(%esp)
  8019e6:	00 
  8019e7:	c7 44 24 04 00 00 00 	movl   $0x0,0x4(%esp)
  8019ee:	00 
  8019ef:	89 04 24             	mov    %eax,(%esp)
  8019f2:	e8 45 9a 00 00       	call   80b43c <netconn_new_with_proto_and_callback>
  8019f7:	89 c3                	mov    %eax,%ebx
                 NETCONN_UDPLITE : NETCONN_UDP, event_callback);
    LWIP_DEBUGF(SOCKETS_DEBUG, ("lwip_socket(%s, SOCK_DGRAM, %d) = ",
                                 domain == PF_INET ? "PF_INET" : "UNKNOWN", protocol));
    break;
  8019f9:	eb 31                	jmp    801a2c <lwip_socket+0x9a>
  case SOCK_STREAM:
    conn = netconn_new_with_callback(NETCONN_TCP, event_callback);
  8019fb:	c7 44 24 08 a9 0e 80 	movl   $0x800ea9,0x8(%esp)
  801a02:	00 
  801a03:	c7 44 24 04 00 00 00 	movl   $0x0,0x4(%esp)
  801a0a:	00 
  801a0b:	c7 04 24 10 00 00 00 	movl   $0x10,(%esp)
  801a12:	e8 25 9a 00 00       	call   80b43c <netconn_new_with_proto_and_callback>
  801a17:	89 c3                	mov    %eax,%ebx
    LWIP_DEBUGF(SOCKETS_DEBUG, ("lwip_socket(%s, SOCK_STREAM, %d) = ",
                                 domain == PF_INET ? "PF_INET" : "UNKNOWN", protocol));
    break;
  801a19:	eb 11                	jmp    801a2c <lwip_socket+0x9a>
  default:
    LWIP_DEBUGF(SOCKETS_DEBUG, ("lwip_socket(%d, %d/UNKNOWN, %d) = -1\n",
                                 domain, type, protocol));
    set_errno(EINVAL);
  801a1b:	c7 05 20 c2 b3 00 16 	movl   $0x16,0xb3c220
  801a22:	00 00 00 
    return -1;
  801a25:	be ff ff ff ff       	mov    $0xffffffff,%esi
  801a2a:	eb 44                	jmp    801a70 <lwip_socket+0xde>
  }

  if (!conn) {
  801a2c:	85 db                	test   %ebx,%ebx
  801a2e:	75 11                	jne    801a41 <lwip_socket+0xaf>
    LWIP_DEBUGF(SOCKETS_DEBUG, ("-1 / ENOBUFS (could not create netconn)\n"));
    set_errno(ENOBUFS);
  801a30:	c7 05 20 c2 b3 00 69 	movl   $0x69,0xb3c220
  801a37:	00 00 00 
    return -1;
  801a3a:	be ff ff ff ff       	mov    $0xffffffff,%esi
  801a3f:	eb 2f                	jmp    801a70 <lwip_socket+0xde>
  }

  i = alloc_socket(conn);
  801a41:	89 d8                	mov    %ebx,%eax
  801a43:	e8 ba f3 ff ff       	call   800e02 <alloc_socket>
  801a48:	89 c6                	mov    %eax,%esi

  if (i == -1) {
  801a4a:	83 f8 ff             	cmp    $0xffffffff,%eax
  801a4d:	75 14                	jne    801a63 <lwip_socket+0xd1>
    netconn_delete(conn);
  801a4f:	89 1c 24             	mov    %ebx,(%esp)
  801a52:	e8 ed 9a 00 00       	call   80b544 <netconn_delete>
    set_errno(ENFILE);
  801a57:	c7 05 20 c2 b3 00 17 	movl   $0x17,0xb3c220
  801a5e:	00 00 00 
    return -1;
  801a61:	eb 0d                	jmp    801a70 <lwip_socket+0xde>
  }
  conn->socket = i;
  801a63:	89 43 1c             	mov    %eax,0x1c(%ebx)
  LWIP_DEBUGF(SOCKETS_DEBUG, ("%d\n", i));
  set_errno(0);
  801a66:	c7 05 20 c2 b3 00 00 	movl   $0x0,0xb3c220
  801a6d:	00 00 00 
  return i;
}
  801a70:	89 f0                	mov    %esi,%eax
  801a72:	83 c4 10             	add    $0x10,%esp
  801a75:	5b                   	pop    %ebx
  801a76:	5e                   	pop    %esi
  801a77:	5d                   	pop    %ebp
  801a78:	c3                   	ret    

00801a79 <lwip_write>:

int
lwip_write(int s, const void *data, int size)
{
  801a79:	55                   	push   %ebp
  801a7a:	89 e5                	mov    %esp,%ebp
  801a7c:	83 ec 18             	sub    $0x18,%esp
  return lwip_send(s, data, size, 0);
  801a7f:	c7 44 24 0c 00 00 00 	movl   $0x0,0xc(%esp)
  801a86:	00 
  801a87:	8b 45 10             	mov    0x10(%ebp),%eax
  801a8a:	89 44 24 08          	mov    %eax,0x8(%esp)
  801a8e:	8b 45 0c             	mov    0xc(%ebp),%eax
  801a91:	89 44 24 04          	mov    %eax,0x4(%esp)
  801a95:	8b 45 08             	mov    0x8(%ebp),%eax
  801a98:	89 04 24             	mov    %eax,(%esp)
  801a9b:	e8 3c fe ff ff       	call   8018dc <lwip_send>
}
  801aa0:	c9                   	leave  
  801aa1:	c3                   	ret    

00801aa2 <lwip_select>:
 * Processing exceptset is not yet implemented.
 */
int
lwip_select(int maxfdp1, fd_set *readset, fd_set *writeset, fd_set *exceptset,
               struct timeval *timeout)
{
  801aa2:	55                   	push   %ebp
  801aa3:	89 e5                	mov    %esp,%ebp
  801aa5:	57                   	push   %edi
  801aa6:	56                   	push   %esi
  801aa7:	53                   	push   %ebx
  801aa8:	83 ec 5c             	sub    $0x5c,%esp
  801aab:	8b 7d 0c             	mov    0xc(%ebp),%edi
  801aae:	8b 75 10             	mov    0x10(%ebp),%esi
  801ab1:	8b 5d 14             	mov    0x14(%ebp),%ebx

  LWIP_DEBUGF(SOCKETS_DEBUG, ("lwip_select(%d, %p, %p, %p, tvsec=%ld tvusec=%ld)\n",
                  maxfdp1, (void *)readset, (void *) writeset, (void *) exceptset,
                  timeout ? timeout->tv_sec : -1L, timeout ? timeout->tv_usec : -1L));

  select_cb.next = 0;
  801ab4:	c7 45 c4 00 00 00 00 	movl   $0x0,-0x3c(%ebp)
  select_cb.readset = readset;
  801abb:	89 7d c8             	mov    %edi,-0x38(%ebp)
  select_cb.writeset = writeset;
  801abe:	89 75 cc             	mov    %esi,-0x34(%ebp)
  select_cb.exceptset = exceptset;
  801ac1:	89 5d d0             	mov    %ebx,-0x30(%ebp)
  select_cb.sem_signalled = 0;
  801ac4:	c7 45 d4 00 00 00 00 	movl   $0x0,-0x2c(%ebp)

  /* Protect ourselves searching through the list */
  sys_sem_wait(selectsem);
  801acb:	a1 64 60 81 00       	mov    0x816064,%eax
  801ad0:	89 04 24             	mov    %eax,(%esp)
  801ad3:	e8 94 3b 00 00       	call   80566c <sys_sem_wait>

  if (readset)
  801ad8:	85 ff                	test   %edi,%edi
  801ada:	74 07                	je     801ae3 <lwip_select+0x41>
    lreadset = *readset;
  801adc:	8b 07                	mov    (%edi),%eax
  801ade:	89 45 e4             	mov    %eax,-0x1c(%ebp)
  801ae1:	eb 1b                	jmp    801afe <lwip_select+0x5c>
  else
    FD_ZERO(&lreadset);
  801ae3:	c7 44 24 08 04 00 00 	movl   $0x4,0x8(%esp)
  801aea:	00 
  801aeb:	c7 44 24 04 00 00 00 	movl   $0x0,0x4(%esp)
  801af2:	00 
  801af3:	8d 45 e4             	lea    -0x1c(%ebp),%eax
  801af6:	89 04 24             	mov    %eax,(%esp)
  801af9:	e8 54 db 00 00       	call   80f652 <memset>
  if (writeset)
  801afe:	85 f6                	test   %esi,%esi
  801b00:	74 07                	je     801b09 <lwip_select+0x67>
    lwriteset = *writeset;
  801b02:	8b 06                	mov    (%esi),%eax
  801b04:	89 45 e0             	mov    %eax,-0x20(%ebp)
  801b07:	eb 1b                	jmp    801b24 <lwip_select+0x82>
  else
    FD_ZERO(&lwriteset);
  801b09:	c7 44 24 08 04 00 00 	movl   $0x4,0x8(%esp)
  801b10:	00 
  801b11:	c7 44 24 04 00 00 00 	movl   $0x0,0x4(%esp)
  801b18:	00 
  801b19:	8d 45 e0             	lea    -0x20(%ebp),%eax
  801b1c:	89 04 24             	mov    %eax,(%esp)
  801b1f:	e8 2e db 00 00       	call   80f652 <memset>
  if (exceptset)
  801b24:	85 db                	test   %ebx,%ebx
  801b26:	74 07                	je     801b2f <lwip_select+0x8d>
    lexceptset = *exceptset;
  801b28:	8b 03                	mov    (%ebx),%eax
  801b2a:	89 45 dc             	mov    %eax,-0x24(%ebp)
  801b2d:	eb 1b                	jmp    801b4a <lwip_select+0xa8>
  else
    FD_ZERO(&lexceptset);
  801b2f:	c7 44 24 08 04 00 00 	movl   $0x4,0x8(%esp)
  801b36:	00 
  801b37:	c7 44 24 04 00 00 00 	movl   $0x0,0x4(%esp)
  801b3e:	00 
  801b3f:	8d 45 dc             	lea    -0x24(%ebp),%eax
  801b42:	89 04 24             	mov    %eax,(%esp)
  801b45:	e8 08 db 00 00       	call   80f652 <memset>

  /* Go through each socket in each list to count number of sockets which
     currently match */
  nready = lwip_selscan(maxfdp1, &lreadset, &lwriteset, &lexceptset);
  801b4a:	8d 45 dc             	lea    -0x24(%ebp),%eax
  801b4d:	89 04 24             	mov    %eax,(%esp)
  801b50:	8d 4d e0             	lea    -0x20(%ebp),%ecx
  801b53:	8d 55 e4             	lea    -0x1c(%ebp),%edx
  801b56:	8b 45 08             	mov    0x8(%ebp),%eax
  801b59:	e8 b1 f0 ff ff       	call   800c0f <lwip_selscan>
  801b5e:	89 45 b0             	mov    %eax,-0x50(%ebp)

  /* If we don't have any current events, then suspend if we are supposed to */
  if (!nready) {
  801b61:	85 c0                	test   %eax,%eax
  801b63:	0f 85 21 02 00 00    	jne    801d8a <lwip_select+0x2e8>
    if (timeout && timeout->tv_sec == 0 && timeout->tv_usec == 0) {
  801b69:	83 7d 18 00          	cmpl   $0x0,0x18(%ebp)
  801b6d:	0f 84 86 00 00 00    	je     801bf9 <lwip_select+0x157>
  801b73:	8b 45 18             	mov    0x18(%ebp),%eax
  801b76:	83 38 00             	cmpl   $0x0,(%eax)
  801b79:	0f 85 48 02 00 00    	jne    801dc7 <lwip_select+0x325>
  801b7f:	83 78 04 00          	cmpl   $0x0,0x4(%eax)
  801b83:	0f 85 3e 02 00 00    	jne    801dc7 <lwip_select+0x325>
      sys_sem_signal(selectsem);
  801b89:	a1 64 60 81 00       	mov    0x816064,%eax
  801b8e:	89 04 24             	mov    %eax,(%esp)
  801b91:	e8 2b 8c 00 00       	call   80a7c1 <sys_sem_signal>
      if (readset)
  801b96:	85 ff                	test   %edi,%edi
  801b98:	74 18                	je     801bb2 <lwip_select+0x110>
        FD_ZERO(readset);
  801b9a:	c7 44 24 08 04 00 00 	movl   $0x4,0x8(%esp)
  801ba1:	00 
  801ba2:	c7 44 24 04 00 00 00 	movl   $0x0,0x4(%esp)
  801ba9:	00 
  801baa:	89 3c 24             	mov    %edi,(%esp)
  801bad:	e8 a0 da 00 00       	call   80f652 <memset>
      if (writeset)
  801bb2:	85 f6                	test   %esi,%esi
  801bb4:	74 18                	je     801bce <lwip_select+0x12c>
        FD_ZERO(writeset);
  801bb6:	c7 44 24 08 04 00 00 	movl   $0x4,0x8(%esp)
  801bbd:	00 
  801bbe:	c7 44 24 04 00 00 00 	movl   $0x0,0x4(%esp)
  801bc5:	00 
  801bc6:	89 34 24             	mov    %esi,(%esp)
  801bc9:	e8 84 da 00 00       	call   80f652 <memset>
      if (exceptset)
  801bce:	85 db                	test   %ebx,%ebx
  801bd0:	74 18                	je     801bea <lwip_select+0x148>
        FD_ZERO(exceptset);
  801bd2:	c7 44 24 08 04 00 00 	movl   $0x4,0x8(%esp)
  801bd9:	00 
  801bda:	c7 44 24 04 00 00 00 	movl   $0x0,0x4(%esp)
  801be1:	00 
  801be2:	89 1c 24             	mov    %ebx,(%esp)
  801be5:	e8 68 da 00 00       	call   80f652 <memset>
  
      LWIP_DEBUGF(SOCKETS_DEBUG, ("lwip_select: no timeout, returning 0\n"));
      set_errno(0);
  801bea:	c7 05 20 c2 b3 00 00 	movl   $0x0,0xb3c220
  801bf1:	00 00 00 
  
      return 0;
  801bf4:	e9 c3 01 00 00       	jmp    801dbc <lwip_select+0x31a>
    /* add our semaphore to list */
    /* We don't actually need any dynamic memory. Our entry on the
     * list is only valid while we are in this function, so it's ok
     * to use local variables */
    
    select_cb.sem = sys_sem_new(0);
  801bf9:	c7 04 24 00 00 00 00 	movl   $0x0,(%esp)
  801c00:	e8 ae 88 00 00       	call   80a4b3 <sys_sem_new>
  801c05:	89 45 d8             	mov    %eax,-0x28(%ebp)
    /* Note that we are still protected */
    /* Put this select_cb on top of list */
    select_cb.next = select_cb_list;
  801c08:	a1 00 63 81 00       	mov    0x816300,%eax
  801c0d:	89 45 c4             	mov    %eax,-0x3c(%ebp)
    select_cb_list = &select_cb;
  801c10:	8d 45 c4             	lea    -0x3c(%ebp),%eax
  801c13:	a3 00 63 81 00       	mov    %eax,0x816300
    
    /* Now we can safely unprotect */
    sys_sem_signal(selectsem);
  801c18:	a1 64 60 81 00       	mov    0x816064,%eax
  801c1d:	89 04 24             	mov    %eax,(%esp)
  801c20:	e8 9c 8b 00 00       	call   80a7c1 <sys_sem_signal>
    
    /* Now just wait to be woken */
    if (timeout == 0)
      /* Wait forever */
      msectimeout = 0;
  801c25:	b8 00 00 00 00       	mov    $0x0,%eax
  801c2a:	eb 05                	jmp    801c31 <lwip_select+0x18f>
    else {
      msectimeout =  ((timeout->tv_sec * 1000) + ((timeout->tv_usec + 500)/1000));
      if(msectimeout == 0)
        msectimeout = 1;
  801c2c:	b8 01 00 00 00       	mov    $0x1,%eax
    }
    
    i = sys_sem_wait_timeout(select_cb.sem, msectimeout);
  801c31:	89 44 24 04          	mov    %eax,0x4(%esp)
  801c35:	8b 45 d8             	mov    -0x28(%ebp),%eax
  801c38:	89 04 24             	mov    %eax,(%esp)
  801c3b:	e8 ff 3b 00 00       	call   80583f <sys_sem_wait_timeout>
  801c40:	89 45 b4             	mov    %eax,-0x4c(%ebp)
    
    /* Take us off the list */
    sys_sem_wait(selectsem);
  801c43:	a1 64 60 81 00       	mov    0x816064,%eax
  801c48:	89 04 24             	mov    %eax,(%esp)
  801c4b:	e8 1c 3a 00 00       	call   80566c <sys_sem_wait>
    if (select_cb_list == &select_cb)
  801c50:	a1 00 63 81 00       	mov    0x816300,%eax
  801c55:	8d 55 c4             	lea    -0x3c(%ebp),%edx
  801c58:	39 d0                	cmp    %edx,%eax
  801c5a:	75 1b                	jne    801c77 <lwip_select+0x1d5>
      select_cb_list = select_cb.next;
  801c5c:	8b 45 c4             	mov    -0x3c(%ebp),%eax
  801c5f:	a3 00 63 81 00       	mov    %eax,0x816300
  801c64:	eb 18                	jmp    801c7e <lwip_select+0x1dc>
    else
      for (p_selcb = select_cb_list; p_selcb; p_selcb = p_selcb->next) {
        if (p_selcb->next == &select_cb) {
  801c66:	8b 10                	mov    (%eax),%edx
  801c68:	39 ca                	cmp    %ecx,%edx
  801c6a:	75 07                	jne    801c73 <lwip_select+0x1d1>
          p_selcb->next = select_cb.next;
  801c6c:	8b 55 c4             	mov    -0x3c(%ebp),%edx
  801c6f:	89 10                	mov    %edx,(%eax)
          break;
  801c71:	eb 0b                	jmp    801c7e <lwip_select+0x1dc>
    /* Take us off the list */
    sys_sem_wait(selectsem);
    if (select_cb_list == &select_cb)
      select_cb_list = select_cb.next;
    else
      for (p_selcb = select_cb_list; p_selcb; p_selcb = p_selcb->next) {
  801c73:	89 d0                	mov    %edx,%eax
  801c75:	eb 03                	jmp    801c7a <lwip_select+0x1d8>
        if (p_selcb->next == &select_cb) {
  801c77:	8d 4d c4             	lea    -0x3c(%ebp),%ecx
    /* Take us off the list */
    sys_sem_wait(selectsem);
    if (select_cb_list == &select_cb)
      select_cb_list = select_cb.next;
    else
      for (p_selcb = select_cb_list; p_selcb; p_selcb = p_selcb->next) {
  801c7a:	85 c0                	test   %eax,%eax
  801c7c:	75 e8                	jne    801c66 <lwip_select+0x1c4>
          p_selcb->next = select_cb.next;
          break;
        }
      }
    
    sys_sem_signal(selectsem);
  801c7e:	a1 64 60 81 00       	mov    0x816064,%eax
  801c83:	89 04 24             	mov    %eax,(%esp)
  801c86:	e8 36 8b 00 00       	call   80a7c1 <sys_sem_signal>
    
    sys_sem_free(select_cb.sem);
  801c8b:	8b 45 d8             	mov    -0x28(%ebp),%eax
  801c8e:	89 04 24             	mov    %eax,(%esp)
  801c91:	e8 b9 88 00 00       	call   80a54f <sys_sem_free>
    if (i == 0)  {
  801c96:	83 7d b4 00          	cmpl   $0x0,-0x4c(%ebp)
  801c9a:	75 63                	jne    801cff <lwip_select+0x25d>
      /* Timeout */
      if (readset)
  801c9c:	85 ff                	test   %edi,%edi
  801c9e:	74 18                	je     801cb8 <lwip_select+0x216>
        FD_ZERO(readset);
  801ca0:	c7 44 24 08 04 00 00 	movl   $0x4,0x8(%esp)
  801ca7:	00 
  801ca8:	c7 44 24 04 00 00 00 	movl   $0x0,0x4(%esp)
  801caf:	00 
  801cb0:	89 3c 24             	mov    %edi,(%esp)
  801cb3:	e8 9a d9 00 00       	call   80f652 <memset>
      if (writeset)
  801cb8:	85 f6                	test   %esi,%esi
  801cba:	74 18                	je     801cd4 <lwip_select+0x232>
        FD_ZERO(writeset);
  801cbc:	c7 44 24 08 04 00 00 	movl   $0x4,0x8(%esp)
  801cc3:	00 
  801cc4:	c7 44 24 04 00 00 00 	movl   $0x0,0x4(%esp)
  801ccb:	00 
  801ccc:	89 34 24             	mov    %esi,(%esp)
  801ccf:	e8 7e d9 00 00       	call   80f652 <memset>
      if (exceptset)
  801cd4:	85 db                	test   %ebx,%ebx
  801cd6:	74 18                	je     801cf0 <lwip_select+0x24e>
        FD_ZERO(exceptset);
  801cd8:	c7 44 24 08 04 00 00 	movl   $0x4,0x8(%esp)
  801cdf:	00 
  801ce0:	c7 44 24 04 00 00 00 	movl   $0x0,0x4(%esp)
  801ce7:	00 
  801ce8:	89 1c 24             	mov    %ebx,(%esp)
  801ceb:	e8 62 d9 00 00       	call   80f652 <memset>
  
      LWIP_DEBUGF(SOCKETS_DEBUG, ("lwip_select: timeout expired\n"));
      set_errno(0);
  801cf0:	c7 05 20 c2 b3 00 00 	movl   $0x0,0xb3c220
  801cf7:	00 00 00 
  
      return 0;
  801cfa:	e9 bd 00 00 00       	jmp    801dbc <lwip_select+0x31a>
    }
    
    if (readset)
  801cff:	85 ff                	test   %edi,%edi
  801d01:	74 07                	je     801d0a <lwip_select+0x268>
      lreadset = *readset;
  801d03:	8b 07                	mov    (%edi),%eax
  801d05:	89 45 e4             	mov    %eax,-0x1c(%ebp)
  801d08:	eb 1b                	jmp    801d25 <lwip_select+0x283>
    else
      FD_ZERO(&lreadset);
  801d0a:	c7 44 24 08 04 00 00 	movl   $0x4,0x8(%esp)
  801d11:	00 
  801d12:	c7 44 24 04 00 00 00 	movl   $0x0,0x4(%esp)
  801d19:	00 
  801d1a:	8d 45 e4             	lea    -0x1c(%ebp),%eax
  801d1d:	89 04 24             	mov    %eax,(%esp)
  801d20:	e8 2d d9 00 00       	call   80f652 <memset>
    if (writeset)
  801d25:	85 f6                	test   %esi,%esi
  801d27:	74 07                	je     801d30 <lwip_select+0x28e>
      lwriteset = *writeset;
  801d29:	8b 06                	mov    (%esi),%eax
  801d2b:	89 45 e0             	mov    %eax,-0x20(%ebp)
  801d2e:	eb 1b                	jmp    801d4b <lwip_select+0x2a9>
    else
      FD_ZERO(&lwriteset);
  801d30:	c7 44 24 08 04 00 00 	movl   $0x4,0x8(%esp)
  801d37:	00 
  801d38:	c7 44 24 04 00 00 00 	movl   $0x0,0x4(%esp)
  801d3f:	00 
  801d40:	8d 45 e0             	lea    -0x20(%ebp),%eax
  801d43:	89 04 24             	mov    %eax,(%esp)
  801d46:	e8 07 d9 00 00       	call   80f652 <memset>
    if (exceptset)
  801d4b:	85 db                	test   %ebx,%ebx
  801d4d:	74 07                	je     801d56 <lwip_select+0x2b4>
      lexceptset = *exceptset;
  801d4f:	8b 03                	mov    (%ebx),%eax
  801d51:	89 45 dc             	mov    %eax,-0x24(%ebp)
  801d54:	eb 1b                	jmp    801d71 <lwip_select+0x2cf>
    else
      FD_ZERO(&lexceptset);
  801d56:	c7 44 24 08 04 00 00 	movl   $0x4,0x8(%esp)
  801d5d:	00 
  801d5e:	c7 44 24 04 00 00 00 	movl   $0x0,0x4(%esp)
  801d65:	00 
  801d66:	8d 45 dc             	lea    -0x24(%ebp),%eax
  801d69:	89 04 24             	mov    %eax,(%esp)
  801d6c:	e8 e1 d8 00 00       	call   80f652 <memset>
    
    /* See what's set */
    nready = lwip_selscan(maxfdp1, &lreadset, &lwriteset, &lexceptset);
  801d71:	8d 45 dc             	lea    -0x24(%ebp),%eax
  801d74:	89 04 24             	mov    %eax,(%esp)
  801d77:	8d 4d e0             	lea    -0x20(%ebp),%ecx
  801d7a:	8d 55 e4             	lea    -0x1c(%ebp),%edx
  801d7d:	8b 45 08             	mov    0x8(%ebp),%eax
  801d80:	e8 8a ee ff ff       	call   800c0f <lwip_selscan>
  801d85:	89 45 b0             	mov    %eax,-0x50(%ebp)
  801d88:	eb 0d                	jmp    801d97 <lwip_select+0x2f5>
  } else
    sys_sem_signal(selectsem);
  801d8a:	a1 64 60 81 00       	mov    0x816064,%eax
  801d8f:	89 04 24             	mov    %eax,(%esp)
  801d92:	e8 2a 8a 00 00       	call   80a7c1 <sys_sem_signal>
  
  if (readset)
  801d97:	85 ff                	test   %edi,%edi
  801d99:	74 05                	je     801da0 <lwip_select+0x2fe>
    *readset = lreadset;
  801d9b:	8b 45 e4             	mov    -0x1c(%ebp),%eax
  801d9e:	89 07                	mov    %eax,(%edi)
  if (writeset)
  801da0:	85 f6                	test   %esi,%esi
  801da2:	74 05                	je     801da9 <lwip_select+0x307>
    *writeset = lwriteset;
  801da4:	8b 45 e0             	mov    -0x20(%ebp),%eax
  801da7:	89 06                	mov    %eax,(%esi)
  if (exceptset)
  801da9:	85 db                	test   %ebx,%ebx
  801dab:	74 05                	je     801db2 <lwip_select+0x310>
    *exceptset = lexceptset;
  801dad:	8b 45 dc             	mov    -0x24(%ebp),%eax
  801db0:	89 03                	mov    %eax,(%ebx)
  
  LWIP_DEBUGF(SOCKETS_DEBUG, ("lwip_select: nready=%d\n", nready));
  set_errno(0);
  801db2:	c7 05 20 c2 b3 00 00 	movl   $0x0,0xb3c220
  801db9:	00 00 00 
  
  return nready;
}
  801dbc:	8b 45 b0             	mov    -0x50(%ebp),%eax
  801dbf:	83 c4 5c             	add    $0x5c,%esp
  801dc2:	5b                   	pop    %ebx
  801dc3:	5e                   	pop    %esi
  801dc4:	5f                   	pop    %edi
  801dc5:	5d                   	pop    %ebp
  801dc6:	c3                   	ret    
    /* add our semaphore to list */
    /* We don't actually need any dynamic memory. Our entry on the
     * list is only valid while we are in this function, so it's ok
     * to use local variables */
    
    select_cb.sem = sys_sem_new(0);
  801dc7:	c7 04 24 00 00 00 00 	movl   $0x0,(%esp)
  801dce:	e8 e0 86 00 00       	call   80a4b3 <sys_sem_new>
  801dd3:	89 45 d8             	mov    %eax,-0x28(%ebp)
    /* Note that we are still protected */
    /* Put this select_cb on top of list */
    select_cb.next = select_cb_list;
  801dd6:	a1 00 63 81 00       	mov    0x816300,%eax
  801ddb:	89 45 c4             	mov    %eax,-0x3c(%ebp)
    select_cb_list = &select_cb;
  801dde:	8d 45 c4             	lea    -0x3c(%ebp),%eax
  801de1:	a3 00 63 81 00       	mov    %eax,0x816300
    
    /* Now we can safely unprotect */
    sys_sem_signal(selectsem);
  801de6:	a1 64 60 81 00       	mov    0x816064,%eax
  801deb:	89 04 24             	mov    %eax,(%esp)
  801dee:	e8 ce 89 00 00       	call   80a7c1 <sys_sem_signal>
    /* Now just wait to be woken */
    if (timeout == 0)
      /* Wait forever */
      msectimeout = 0;
    else {
      msectimeout =  ((timeout->tv_sec * 1000) + ((timeout->tv_usec + 500)/1000));
  801df3:	8b 55 18             	mov    0x18(%ebp),%edx
  801df6:	8b 02                	mov    (%edx),%eax
  801df8:	8d 04 80             	lea    (%eax,%eax,4),%eax
  801dfb:	8d 04 80             	lea    (%eax,%eax,4),%eax
  801dfe:	8d 04 80             	lea    (%eax,%eax,4),%eax
  801e01:	89 45 a8             	mov    %eax,-0x58(%ebp)
  801e04:	8b 52 04             	mov    0x4(%edx),%edx
  801e07:	81 c2 f4 01 00 00    	add    $0x1f4,%edx
  801e0d:	89 55 b4             	mov    %edx,-0x4c(%ebp)
  801e10:	b8 d3 4d 62 10       	mov    $0x10624dd3,%eax
  801e15:	f7 ea                	imul   %edx
  801e17:	89 d1                	mov    %edx,%ecx
  801e19:	c1 f9 06             	sar    $0x6,%ecx
  801e1c:	8b 45 b4             	mov    -0x4c(%ebp),%eax
  801e1f:	99                   	cltd   
  801e20:	89 c8                	mov    %ecx,%eax
  801e22:	29 d0                	sub    %edx,%eax
  801e24:	8b 4d a8             	mov    -0x58(%ebp),%ecx
  801e27:	8d 04 c8             	lea    (%eax,%ecx,8),%eax
      if(msectimeout == 0)
  801e2a:	85 c0                	test   %eax,%eax
  801e2c:	0f 84 fa fd ff ff    	je     801c2c <lwip_select+0x18a>
  801e32:	e9 fa fd ff ff       	jmp    801c31 <lwip_select+0x18f>

00801e37 <lwip_shutdown>:
 * Unimplemented: Close one end of a full-duplex connection.
 * Currently, the full connection is closed.
 */
int
lwip_shutdown(int s, int how)
{
  801e37:	55                   	push   %ebp
  801e38:	89 e5                	mov    %esp,%ebp
  801e3a:	83 ec 18             	sub    $0x18,%esp
  LWIP_UNUSED_ARG(how);
  LWIP_DEBUGF(SOCKETS_DEBUG, ("lwip_shutdown(%d, how=%d)\n", s, how));
  return lwip_close(s); /* XXX temporary hack until proper implementation */
  801e3d:	8b 45 08             	mov    0x8(%ebp),%eax
  801e40:	89 04 24             	mov    %eax,(%esp)
  801e43:	e8 7b f4 ff ff       	call   8012c3 <lwip_close>
}
  801e48:	c9                   	leave  
  801e49:	c3                   	ret    

00801e4a <lwip_getpeername>:
  return 0;
}

int
lwip_getpeername(int s, struct sockaddr *name, socklen_t *namelen)
{
  801e4a:	55                   	push   %ebp
  801e4b:	89 e5                	mov    %esp,%ebp
  801e4d:	83 ec 18             	sub    $0x18,%esp
  return lwip_getaddrname(s, name, namelen, 0);
  801e50:	c7 04 24 00 00 00 00 	movl   $0x0,(%esp)
  801e57:	8b 4d 10             	mov    0x10(%ebp),%ecx
  801e5a:	8b 55 0c             	mov    0xc(%ebp),%edx
  801e5d:	8b 45 08             	mov    0x8(%ebp),%eax
  801e60:	e8 dd ee ff ff       	call   800d42 <lwip_getaddrname>
}
  801e65:	c9                   	leave  
  801e66:	c3                   	ret    

00801e67 <lwip_getsockname>:

int
lwip_getsockname(int s, struct sockaddr *name, socklen_t *namelen)
{
  801e67:	55                   	push   %ebp
  801e68:	89 e5                	mov    %esp,%ebp
  801e6a:	83 ec 18             	sub    $0x18,%esp
  return lwip_getaddrname(s, name, namelen, 1);
  801e6d:	c7 04 24 01 00 00 00 	movl   $0x1,(%esp)
  801e74:	8b 4d 10             	mov    0x10(%ebp),%ecx
  801e77:	8b 55 0c             	mov    0xc(%ebp),%edx
  801e7a:	8b 45 08             	mov    0x8(%ebp),%eax
  801e7d:	e8 c0 ee ff ff       	call   800d42 <lwip_getaddrname>
}
  801e82:	c9                   	leave  
  801e83:	c3                   	ret    

00801e84 <lwip_getsockopt>:

int
lwip_getsockopt(int s, int level, int optname, void *optval, socklen_t *optlen)
{
  801e84:	55                   	push   %ebp
  801e85:	89 e5                	mov    %esp,%ebp
  801e87:	57                   	push   %edi
  801e88:	56                   	push   %esi
  801e89:	53                   	push   %ebx
  801e8a:	83 ec 3c             	sub    $0x3c,%esp
  801e8d:	8b 7d 0c             	mov    0xc(%ebp),%edi
  801e90:	8b 75 18             	mov    0x18(%ebp),%esi
  err_t err = ERR_OK;
  struct lwip_socket *sock = get_socket(s);
  801e93:	8b 45 08             	mov    0x8(%ebp),%eax
  801e96:	e8 a5 ea ff ff       	call   800940 <get_socket>
  801e9b:	89 c3                	mov    %eax,%ebx
  struct lwip_setgetsockopt_data data;

  if (!sock)
  801e9d:	85 c0                	test   %eax,%eax
  801e9f:	0f 84 62 01 00 00    	je     802007 <lwip_getsockopt+0x183>
    return -1;

  if ((NULL == optval) || (NULL == optlen)) {
  801ea5:	83 7d 14 00          	cmpl   $0x0,0x14(%ebp)
  801ea9:	74 04                	je     801eaf <lwip_getsockopt+0x2b>
  801eab:	85 f6                	test   %esi,%esi
  801ead:	75 1b                	jne    801eca <lwip_getsockopt+0x46>
    sock_set_errno(sock, EFAULT);
  801eaf:	c7 43 10 0e 00 00 00 	movl   $0xe,0x10(%ebx)
  801eb6:	c7 05 20 c2 b3 00 0e 	movl   $0xe,0xb3c220
  801ebd:	00 00 00 
    return -1;
  801ec0:	b8 ff ff ff ff       	mov    $0xffffffff,%eax
  801ec5:	e9 49 01 00 00       	jmp    802013 <lwip_getsockopt+0x18f>
  }

  /* Do length and type checks for the various options first, to keep it readable. */
  switch (level) {
  801eca:	83 ff 06             	cmp    $0x6,%edi
  801ecd:	0f 84 8d 00 00 00    	je     801f60 <lwip_getsockopt+0xdc>
  801ed3:	81 ff ff 0f 00 00    	cmp    $0xfff,%edi
  801ed9:	74 09                	je     801ee4 <lwip_getsockopt+0x60>
  801edb:	85 ff                	test   %edi,%edi
  801edd:	74 6d                	je     801f4c <lwip_getsockopt+0xc8>
  801edf:	e9 9f 00 00 00       	jmp    801f83 <lwip_getsockopt+0xff>
   
/* Level: SOL_SOCKET */
  case SOL_SOCKET:
    switch (optname) {
  801ee4:	83 7d 10 20          	cmpl   $0x20,0x10(%ebp)
  801ee8:	74 35                	je     801f1f <lwip_getsockopt+0x9b>
  801eea:	83 7d 10 20          	cmpl   $0x20,0x10(%ebp)
  801eee:	7f 12                	jg     801f02 <lwip_getsockopt+0x7e>
  801ef0:	83 7d 10 02          	cmpl   $0x2,0x10(%ebp)
  801ef4:	74 29                	je     801f1f <lwip_getsockopt+0x9b>
  801ef6:	83 7d 10 08          	cmpl   $0x8,0x10(%ebp)
  801efa:	0f 85 87 00 00 00    	jne    801f87 <lwip_getsockopt+0x103>
  801f00:	eb 1d                	jmp    801f1f <lwip_getsockopt+0x9b>
  801f02:	81 7d 10 07 10 00 00 	cmpl   $0x1007,0x10(%ebp)
  801f09:	7c 7c                	jl     801f87 <lwip_getsockopt+0x103>
  801f0b:	81 7d 10 08 10 00 00 	cmpl   $0x1008,0x10(%ebp)
  801f12:	7e 0b                	jle    801f1f <lwip_getsockopt+0x9b>
  801f14:	81 7d 10 0a 10 00 00 	cmpl   $0x100a,0x10(%ebp)
  801f1b:	75 6a                	jne    801f87 <lwip_getsockopt+0x103>
  801f1d:	eb 0b                	jmp    801f2a <lwip_getsockopt+0xa6>
    case SO_REUSEADDR:
    case SO_REUSEPORT:
#endif /* SO_REUSE */
    case SO_TYPE:
    /* UNIMPL case SO_USELOOPBACK: */
      if (*optlen < sizeof(int)) {
  801f1f:	83 3e 03             	cmpl   $0x3,(%esi)
  801f22:	0f 86 f3 00 00 00    	jbe    80201b <lwip_getsockopt+0x197>
  801f28:	eb 7d                	jmp    801fa7 <lwip_getsockopt+0x123>
}

int
lwip_getsockopt(int s, int level, int optname, void *optval, socklen_t *optlen)
{
  err_t err = ERR_OK;
  801f2a:	83 3e 04             	cmpl   $0x4,(%esi)
  801f2d:	19 c0                	sbb    %eax,%eax
  801f2f:	83 e0 16             	and    $0x16,%eax
    case SO_NO_CHECK:
      if (*optlen < sizeof(int)) {
        err = EINVAL;
      }
#if LWIP_UDP
      if ((sock->conn->type != NETCONN_UDP) ||
  801f32:	8b 13                	mov    (%ebx),%edx
  801f34:	83 3a 20             	cmpl   $0x20,(%edx)
  801f37:	0f 85 e5 00 00 00    	jne    802022 <lwip_getsockopt+0x19e>
          ((udp_flags(sock->conn->pcb.udp) & UDP_FLAGS_UDPLITE) != 0)) {
  801f3d:	8b 52 08             	mov    0x8(%edx),%edx
    case SO_NO_CHECK:
      if (*optlen < sizeof(int)) {
        err = EINVAL;
      }
#if LWIP_UDP
      if ((sock->conn->type != NETCONN_UDP) ||
  801f40:	f6 42 10 02          	testb  $0x2,0x10(%edx)
  801f44:	0f 85 df 00 00 00    	jne    802029 <lwip_getsockopt+0x1a5>
  801f4a:	eb 45                	jmp    801f91 <lwip_getsockopt+0x10d>
    }  /* switch (optname) */
    break;
                     
/* Level: IPPROTO_IP */
  case IPPROTO_IP:
    switch (optname) {
  801f4c:	8b 45 10             	mov    0x10(%ebp),%eax
  801f4f:	48                   	dec    %eax
  801f50:	83 f8 01             	cmp    $0x1,%eax
  801f53:	77 36                	ja     801f8b <lwip_getsockopt+0x107>
    /* UNIMPL case IP_HDRINCL: */
    /* UNIMPL case IP_RCVDSTADDR: */
    /* UNIMPL case IP_RCVIF: */
    case IP_TTL:
    case IP_TOS:
      if (*optlen < sizeof(int)) {
  801f55:	83 3e 03             	cmpl   $0x3,(%esi)
  801f58:	0f 86 d2 00 00 00    	jbe    802030 <lwip_getsockopt+0x1ac>
  801f5e:	eb 47                	jmp    801fa7 <lwip_getsockopt+0x123>
    break;
         
#if LWIP_TCP
/* Level: IPPROTO_TCP */
  case IPPROTO_TCP:
    if (*optlen < sizeof(int)) {
  801f60:	83 3e 03             	cmpl   $0x3,(%esi)
  801f63:	0f 86 ce 00 00 00    	jbe    802037 <lwip_getsockopt+0x1b3>
      err = EINVAL;
      break;
    }
    
    /* If this is no TCP socket, ignore any options. */
    if (sock->conn->type != NETCONN_TCP)
  801f69:	8b 00                	mov    (%eax),%eax
  801f6b:	83 38 10             	cmpl   $0x10,(%eax)
  801f6e:	0f 85 9a 00 00 00    	jne    80200e <lwip_getsockopt+0x18a>
      return 0;

    switch (optname) {
  801f74:	8b 45 10             	mov    0x10(%ebp),%eax
  801f77:	48                   	dec    %eax
  801f78:	83 f8 01             	cmp    $0x1,%eax
  801f7b:	0f 87 bd 00 00 00    	ja     80203e <lwip_getsockopt+0x1ba>
  801f81:	eb 0c                	jmp    801f8f <lwip_getsockopt+0x10b>
#endif /* LWIP_UDP && LWIP_UDPLITE*/
/* UNDEFINED LEVEL */
  default:
      LWIP_DEBUGF(SOCKETS_DEBUG, ("lwip_getsockopt(%d, level=0x%x, UNIMPL: optname=0x%x, ..)\n",
                                  s, level, optname));
      err = ENOPROTOOPT;
  801f83:	b0 5c                	mov    $0x5c,%al
  801f85:	eb 0a                	jmp    801f91 <lwip_getsockopt+0x10d>
      break;

    default:
      LWIP_DEBUGF(SOCKETS_DEBUG, ("lwip_getsockopt(%d, SOL_SOCKET, UNIMPL: optname=0x%x, ..)\n",
                                  s, optname));
      err = ENOPROTOOPT;
  801f87:	b0 5c                	mov    $0x5c,%al
  801f89:	eb 06                	jmp    801f91 <lwip_getsockopt+0x10d>
#endif /* LWIP_IGMP */

    default:
      LWIP_DEBUGF(SOCKETS_DEBUG, ("lwip_getsockopt(%d, IPPROTO_IP, UNIMPL: optname=0x%x, ..)\n",
                                  s, optname));
      err = ENOPROTOOPT;
  801f8b:	b0 5c                	mov    $0x5c,%al
  801f8d:	eb 02                	jmp    801f91 <lwip_getsockopt+0x10d>
}

int
lwip_getsockopt(int s, int level, int optname, void *optval, socklen_t *optlen)
{
  err_t err = ERR_OK;
  801f8f:	b0 00                	mov    $0x0,%al
                                  s, level, optname));
      err = ENOPROTOOPT;
  }  /* switch */

   
  if (err != ERR_OK) {
  801f91:	84 c0                	test   %al,%al
  801f93:	74 12                	je     801fa7 <lwip_getsockopt+0x123>
    sock_set_errno(sock, err);
  801f95:	0f be c0             	movsbl %al,%eax
  801f98:	89 43 10             	mov    %eax,0x10(%ebx)
  801f9b:	a3 20 c2 b3 00       	mov    %eax,0xb3c220
    return -1;
  801fa0:	b8 ff ff ff ff       	mov    $0xffffffff,%eax
  801fa5:	eb 6c                	jmp    802013 <lwip_getsockopt+0x18f>
  }

  /* Now do the actual option processing */
  data.sock = sock;
  801fa7:	89 5d cc             	mov    %ebx,-0x34(%ebp)
  data.level = level;
  801faa:	89 7d d4             	mov    %edi,-0x2c(%ebp)
  data.optname = optname;
  801fad:	8b 45 10             	mov    0x10(%ebp),%eax
  801fb0:	89 45 d8             	mov    %eax,-0x28(%ebp)
  data.optval = optval;
  801fb3:	8b 45 14             	mov    0x14(%ebp),%eax
  801fb6:	89 45 dc             	mov    %eax,-0x24(%ebp)
  data.optlen = optlen;
  801fb9:	89 75 e0             	mov    %esi,-0x20(%ebp)
  data.err = err;
  801fbc:	c6 45 e4 00          	movb   $0x0,-0x1c(%ebp)
  tcpip_callback(lwip_getsockopt_internal, &data);
  801fc0:	c7 44 24 08 01 00 00 	movl   $0x1,0x8(%esp)
  801fc7:	00 
  801fc8:	8d 45 cc             	lea    -0x34(%ebp),%eax
  801fcb:	89 44 24 04          	mov    %eax,0x4(%esp)
  801fcf:	c7 04 24 84 0a 80 00 	movl   $0x800a84,(%esp)
  801fd6:	e8 09 06 00 00       	call   8025e4 <tcpip_callback_with_block>
  sys_arch_sem_wait(sock->conn->op_completed, 0);
  801fdb:	c7 44 24 04 00 00 00 	movl   $0x0,0x4(%esp)
  801fe2:	00 
  801fe3:	8b 03                	mov    (%ebx),%eax
  801fe5:	8b 40 10             	mov    0x10(%eax),%eax
  801fe8:	89 04 24             	mov    %eax,(%esp)
  801feb:	e8 35 88 00 00       	call   80a825 <sys_arch_sem_wait>
  /* maybe lwip_getsockopt_internal has changed err */
  err = data.err;
  801ff0:	8a 45 e4             	mov    -0x1c(%ebp),%al

  sock_set_errno(sock, err);
  801ff3:	0f be d0             	movsbl %al,%edx
  801ff6:	89 53 10             	mov    %edx,0x10(%ebx)
  801ff9:	89 15 20 c2 b3 00    	mov    %edx,0xb3c220
  return err ? -1 : 0;
  801fff:	3c 01                	cmp    $0x1,%al
  802001:	19 c0                	sbb    %eax,%eax
  802003:	f7 d0                	not    %eax
  802005:	eb 0c                	jmp    802013 <lwip_getsockopt+0x18f>
  err_t err = ERR_OK;
  struct lwip_socket *sock = get_socket(s);
  struct lwip_setgetsockopt_data data;

  if (!sock)
    return -1;
  802007:	b8 ff ff ff ff       	mov    $0xffffffff,%eax
  80200c:	eb 05                	jmp    802013 <lwip_getsockopt+0x18f>
      break;
    }
    
    /* If this is no TCP socket, ignore any options. */
    if (sock->conn->type != NETCONN_TCP)
      return 0;
  80200e:	b8 00 00 00 00       	mov    $0x0,%eax
  /* maybe lwip_getsockopt_internal has changed err */
  err = data.err;

  sock_set_errno(sock, err);
  return err ? -1 : 0;
}
  802013:	83 c4 3c             	add    $0x3c,%esp
  802016:	5b                   	pop    %ebx
  802017:	5e                   	pop    %esi
  802018:	5f                   	pop    %edi
  802019:	5d                   	pop    %ebp
  80201a:	c3                   	ret    
    case SO_REUSEPORT:
#endif /* SO_REUSE */
    case SO_TYPE:
    /* UNIMPL case SO_USELOOPBACK: */
      if (*optlen < sizeof(int)) {
        err = EINVAL;
  80201b:	b0 16                	mov    $0x16,%al
  80201d:	e9 73 ff ff ff       	jmp    801f95 <lwip_getsockopt+0x111>
      }
#if LWIP_UDP
      if ((sock->conn->type != NETCONN_UDP) ||
          ((udp_flags(sock->conn->pcb.udp) & UDP_FLAGS_UDPLITE) != 0)) {
        /* this flag is only available for UDP, not for UDP lite */
        err = EAFNOSUPPORT;
  802022:	b0 61                	mov    $0x61,%al
  802024:	e9 6c ff ff ff       	jmp    801f95 <lwip_getsockopt+0x111>
  802029:	b0 61                	mov    $0x61,%al
  80202b:	e9 65 ff ff ff       	jmp    801f95 <lwip_getsockopt+0x111>
    /* UNIMPL case IP_RCVDSTADDR: */
    /* UNIMPL case IP_RCVIF: */
    case IP_TTL:
    case IP_TOS:
      if (*optlen < sizeof(int)) {
        err = EINVAL;
  802030:	b0 16                	mov    $0x16,%al
  802032:	e9 5e ff ff ff       	jmp    801f95 <lwip_getsockopt+0x111>
         
#if LWIP_TCP
/* Level: IPPROTO_TCP */
  case IPPROTO_TCP:
    if (*optlen < sizeof(int)) {
      err = EINVAL;
  802037:	b0 16                	mov    $0x16,%al
  802039:	e9 57 ff ff ff       	jmp    801f95 <lwip_getsockopt+0x111>
      break;
       
    default:
      LWIP_DEBUGF(SOCKETS_DEBUG, ("lwip_getsockopt(%d, IPPROTO_TCP, UNIMPL: optname=0x%x, ..)\n",
                                  s, optname));
      err = ENOPROTOOPT;
  80203e:	b0 5c                	mov    $0x5c,%al
  802040:	e9 50 ff ff ff       	jmp    801f95 <lwip_getsockopt+0x111>

00802045 <lwip_setsockopt>:
  sys_sem_signal(sock->conn->op_completed);
}

int
lwip_setsockopt(int s, int level, int optname, const void *optval, socklen_t optlen)
{
  802045:	55                   	push   %ebp
  802046:	89 e5                	mov    %esp,%ebp
  802048:	57                   	push   %edi
  802049:	56                   	push   %esi
  80204a:	53                   	push   %ebx
  80204b:	83 ec 3c             	sub    $0x3c,%esp
  80204e:	8b 75 0c             	mov    0xc(%ebp),%esi
  802051:	8b 7d 14             	mov    0x14(%ebp),%edi
  struct lwip_socket *sock = get_socket(s);
  802054:	8b 45 08             	mov    0x8(%ebp),%eax
  802057:	e8 e4 e8 ff ff       	call   800940 <get_socket>
  80205c:	89 c3                	mov    %eax,%ebx
  int err = ERR_OK;
  struct lwip_setgetsockopt_data data;

  if (!sock)
  80205e:	85 c0                	test   %eax,%eax
  802060:	0f 84 40 01 00 00    	je     8021a6 <lwip_setsockopt+0x161>
    return -1;

  if (NULL == optval) {
  802066:	85 ff                	test   %edi,%edi
  802068:	75 1b                	jne    802085 <lwip_setsockopt+0x40>
    sock_set_errno(sock, EFAULT);
  80206a:	c7 40 10 0e 00 00 00 	movl   $0xe,0x10(%eax)
  802071:	c7 05 20 c2 b3 00 0e 	movl   $0xe,0xb3c220
  802078:	00 00 00 
    return -1;
  80207b:	b8 ff ff ff ff       	mov    $0xffffffff,%eax
  802080:	e9 2d 01 00 00       	jmp    8021b2 <lwip_setsockopt+0x16d>
  }

  /* Do length and type checks for the various options first, to keep it readable. */
  switch (level) {
  802085:	83 fe 06             	cmp    $0x6,%esi
  802088:	74 6d                	je     8020f7 <lwip_setsockopt+0xb2>
  80208a:	81 fe ff 0f 00 00    	cmp    $0xfff,%esi
  802090:	74 09                	je     80209b <lwip_setsockopt+0x56>
  802092:	85 f6                	test   %esi,%esi
  802094:	74 4c                	je     8020e2 <lwip_setsockopt+0x9d>
  802096:	e9 80 00 00 00       	jmp    80211b <lwip_setsockopt+0xd6>

/* Level: SOL_SOCKET */
  case SOL_SOCKET:
    switch (optname) {
  80209b:	83 7d 10 20          	cmpl   $0x20,0x10(%ebp)
  80209f:	74 0f                	je     8020b0 <lwip_setsockopt+0x6b>
  8020a1:	81 7d 10 0a 10 00 00 	cmpl   $0x100a,0x10(%ebp)
  8020a8:	74 15                	je     8020bf <lwip_setsockopt+0x7a>
  8020aa:	83 7d 10 08          	cmpl   $0x8,0x10(%ebp)
  8020ae:	75 72                	jne    802122 <lwip_setsockopt+0xdd>
#if SO_REUSE
    case SO_REUSEADDR:
    case SO_REUSEPORT:
#endif /* SO_REUSE */
    /* UNIMPL case SO_USELOOPBACK: */
      if (optlen < sizeof(int)) {
  8020b0:	83 7d 18 03          	cmpl   $0x3,0x18(%ebp)
  8020b4:	0f 86 00 01 00 00    	jbe    8021ba <lwip_setsockopt+0x175>
  8020ba:	e9 89 00 00 00       	jmp    802148 <lwip_setsockopt+0x103>

int
lwip_setsockopt(int s, int level, int optname, const void *optval, socklen_t optlen)
{
  struct lwip_socket *sock = get_socket(s);
  int err = ERR_OK;
  8020bf:	83 7d 18 04          	cmpl   $0x4,0x18(%ebp)
  8020c3:	19 c0                	sbb    %eax,%eax
  8020c5:	83 e0 16             	and    $0x16,%eax
    case SO_NO_CHECK:
      if (optlen < sizeof(int)) {
        err = EINVAL;
      }
#if LWIP_UDP
      if ((sock->conn->type != NETCONN_UDP) ||
  8020c8:	8b 13                	mov    (%ebx),%edx
  8020ca:	83 3a 20             	cmpl   $0x20,(%edx)
  8020cd:	0f 85 f1 00 00 00    	jne    8021c4 <lwip_setsockopt+0x17f>
          ((udp_flags(sock->conn->pcb.udp) & UDP_FLAGS_UDPLITE) != 0)) {
  8020d3:	8b 52 08             	mov    0x8(%edx),%edx
    case SO_NO_CHECK:
      if (optlen < sizeof(int)) {
        err = EINVAL;
      }
#if LWIP_UDP
      if ((sock->conn->type != NETCONN_UDP) ||
  8020d6:	f6 42 10 02          	testb  $0x2,0x10(%edx)
  8020da:	0f 85 ee 00 00 00    	jne    8021ce <lwip_setsockopt+0x189>
  8020e0:	eb 53                	jmp    802135 <lwip_setsockopt+0xf0>
    }  /* switch (optname) */
    break;

/* Level: IPPROTO_IP */
  case IPPROTO_IP:
    switch (optname) {
  8020e2:	8b 45 10             	mov    0x10(%ebp),%eax
  8020e5:	48                   	dec    %eax
  8020e6:	83 f8 01             	cmp    $0x1,%eax
  8020e9:	77 3e                	ja     802129 <lwip_setsockopt+0xe4>
    /* UNIMPL case IP_HDRINCL: */
    /* UNIMPL case IP_RCVDSTADDR: */
    /* UNIMPL case IP_RCVIF: */
    case IP_TTL:
    case IP_TOS:
      if (optlen < sizeof(int)) {
  8020eb:	83 7d 18 03          	cmpl   $0x3,0x18(%ebp)
  8020ef:	0f 86 e3 00 00 00    	jbe    8021d8 <lwip_setsockopt+0x193>
  8020f5:	eb 51                	jmp    802148 <lwip_setsockopt+0x103>
    break;

#if LWIP_TCP
/* Level: IPPROTO_TCP */
  case IPPROTO_TCP:
    if (optlen < sizeof(int)) {
  8020f7:	83 7d 18 03          	cmpl   $0x3,0x18(%ebp)
  8020fb:	0f 86 e1 00 00 00    	jbe    8021e2 <lwip_setsockopt+0x19d>
      err = EINVAL;
      break;
    }

    /* If this is no TCP socket, ignore any options. */
    if (sock->conn->type != NETCONN_TCP)
  802101:	8b 00                	mov    (%eax),%eax
  802103:	83 38 10             	cmpl   $0x10,(%eax)
  802106:	0f 85 a1 00 00 00    	jne    8021ad <lwip_setsockopt+0x168>
      return 0;

    switch (optname) {
  80210c:	8b 45 10             	mov    0x10(%ebp),%eax
  80210f:	48                   	dec    %eax
  802110:	83 f8 01             	cmp    $0x1,%eax
  802113:	0f 87 d3 00 00 00    	ja     8021ec <lwip_setsockopt+0x1a7>
  802119:	eb 15                	jmp    802130 <lwip_setsockopt+0xeb>
#endif /* LWIP_UDP && LWIP_UDPLITE */
/* UNDEFINED LEVEL */
  default:
    LWIP_DEBUGF(SOCKETS_DEBUG, ("lwip_setsockopt(%d, level=0x%x, UNIMPL: optname=0x%x, ..)\n",
                s, level, optname));
    err = ENOPROTOOPT;
  80211b:	b8 5c 00 00 00       	mov    $0x5c,%eax
  802120:	eb 13                	jmp    802135 <lwip_setsockopt+0xf0>
#endif /* LWIP_UDP */
      break;
    default:
      LWIP_DEBUGF(SOCKETS_DEBUG, ("lwip_setsockopt(%d, SOL_SOCKET, UNIMPL: optname=0x%x, ..)\n",
                  s, optname));
      err = ENOPROTOOPT;
  802122:	b8 5c 00 00 00       	mov    $0x5c,%eax
  802127:	eb 0c                	jmp    802135 <lwip_setsockopt+0xf0>
      break;
#endif /* LWIP_IGMP */
      default:
        LWIP_DEBUGF(SOCKETS_DEBUG, ("lwip_setsockopt(%d, IPPROTO_IP, UNIMPL: optname=0x%x, ..)\n",
                    s, optname));
        err = ENOPROTOOPT;
  802129:	b8 5c 00 00 00       	mov    $0x5c,%eax
  80212e:	eb 05                	jmp    802135 <lwip_setsockopt+0xf0>

int
lwip_setsockopt(int s, int level, int optname, const void *optval, socklen_t optlen)
{
  struct lwip_socket *sock = get_socket(s);
  int err = ERR_OK;
  802130:	b8 00 00 00 00       	mov    $0x0,%eax
                s, level, optname));
    err = ENOPROTOOPT;
  }  /* switch (level) */


  if (err != ERR_OK) {
  802135:	85 c0                	test   %eax,%eax
  802137:	74 0f                	je     802148 <lwip_setsockopt+0x103>
    sock_set_errno(sock, err);
  802139:	89 43 10             	mov    %eax,0x10(%ebx)
  80213c:	a3 20 c2 b3 00       	mov    %eax,0xb3c220
    return -1;
  802141:	b8 ff ff ff ff       	mov    $0xffffffff,%eax
  802146:	eb 6a                	jmp    8021b2 <lwip_setsockopt+0x16d>
  }


  /* Now do the actual option processing */
  data.sock = sock;
  802148:	89 5d cc             	mov    %ebx,-0x34(%ebp)
  data.level = level;
  80214b:	89 75 d4             	mov    %esi,-0x2c(%ebp)
  data.optname = optname;
  80214e:	8b 45 10             	mov    0x10(%ebp),%eax
  802151:	89 45 d8             	mov    %eax,-0x28(%ebp)
  data.optval = (void*)optval;
  802154:	89 7d dc             	mov    %edi,-0x24(%ebp)
  data.optlen = &optlen;
  802157:	8d 45 18             	lea    0x18(%ebp),%eax
  80215a:	89 45 e0             	mov    %eax,-0x20(%ebp)
  data.err = err;
  80215d:	c6 45 e4 00          	movb   $0x0,-0x1c(%ebp)
  tcpip_callback(lwip_setsockopt_internal, &data);
  802161:	c7 44 24 08 01 00 00 	movl   $0x1,0x8(%esp)
  802168:	00 
  802169:	8d 45 cc             	lea    -0x34(%ebp),%eax
  80216c:	89 44 24 04          	mov    %eax,0x4(%esp)
  802170:	c7 04 24 7f 09 80 00 	movl   $0x80097f,(%esp)
  802177:	e8 68 04 00 00       	call   8025e4 <tcpip_callback_with_block>
  sys_arch_sem_wait(sock->conn->op_completed, 0);
  80217c:	c7 44 24 04 00 00 00 	movl   $0x0,0x4(%esp)
  802183:	00 
  802184:	8b 03                	mov    (%ebx),%eax
  802186:	8b 40 10             	mov    0x10(%eax),%eax
  802189:	89 04 24             	mov    %eax,(%esp)
  80218c:	e8 94 86 00 00       	call   80a825 <sys_arch_sem_wait>
  /* maybe lwip_setsockopt_internal has changed err */
  err = data.err;
  802191:	0f be 45 e4          	movsbl -0x1c(%ebp),%eax

  sock_set_errno(sock, err);
  802195:	89 43 10             	mov    %eax,0x10(%ebx)
  802198:	a3 20 c2 b3 00       	mov    %eax,0xb3c220
  return err ? -1 : 0;
  80219d:	83 f8 01             	cmp    $0x1,%eax
  8021a0:	19 c0                	sbb    %eax,%eax
  8021a2:	f7 d0                	not    %eax
  8021a4:	eb 0c                	jmp    8021b2 <lwip_setsockopt+0x16d>
  struct lwip_socket *sock = get_socket(s);
  int err = ERR_OK;
  struct lwip_setgetsockopt_data data;

  if (!sock)
    return -1;
  8021a6:	b8 ff ff ff ff       	mov    $0xffffffff,%eax
  8021ab:	eb 05                	jmp    8021b2 <lwip_setsockopt+0x16d>
      break;
    }

    /* If this is no TCP socket, ignore any options. */
    if (sock->conn->type != NETCONN_TCP)
      return 0;
  8021ad:	b8 00 00 00 00       	mov    $0x0,%eax
  /* maybe lwip_setsockopt_internal has changed err */
  err = data.err;

  sock_set_errno(sock, err);
  return err ? -1 : 0;
}
  8021b2:	83 c4 3c             	add    $0x3c,%esp
  8021b5:	5b                   	pop    %ebx
  8021b6:	5e                   	pop    %esi
  8021b7:	5f                   	pop    %edi
  8021b8:	5d                   	pop    %ebp
  8021b9:	c3                   	ret    
    case SO_REUSEADDR:
    case SO_REUSEPORT:
#endif /* SO_REUSE */
    /* UNIMPL case SO_USELOOPBACK: */
      if (optlen < sizeof(int)) {
        err = EINVAL;
  8021ba:	b8 16 00 00 00       	mov    $0x16,%eax
  8021bf:	e9 75 ff ff ff       	jmp    802139 <lwip_setsockopt+0xf4>
      }
#if LWIP_UDP
      if ((sock->conn->type != NETCONN_UDP) ||
          ((udp_flags(sock->conn->pcb.udp) & UDP_FLAGS_UDPLITE) != 0)) {
        /* this flag is only available for UDP, not for UDP lite */
        err = EAFNOSUPPORT;
  8021c4:	b8 61 00 00 00       	mov    $0x61,%eax
  8021c9:	e9 6b ff ff ff       	jmp    802139 <lwip_setsockopt+0xf4>
  8021ce:	b8 61 00 00 00       	mov    $0x61,%eax
  8021d3:	e9 61 ff ff ff       	jmp    802139 <lwip_setsockopt+0xf4>
    /* UNIMPL case IP_RCVDSTADDR: */
    /* UNIMPL case IP_RCVIF: */
    case IP_TTL:
    case IP_TOS:
      if (optlen < sizeof(int)) {
        err = EINVAL;
  8021d8:	b8 16 00 00 00       	mov    $0x16,%eax
  8021dd:	e9 57 ff ff ff       	jmp    802139 <lwip_setsockopt+0xf4>

#if LWIP_TCP
/* Level: IPPROTO_TCP */
  case IPPROTO_TCP:
    if (optlen < sizeof(int)) {
      err = EINVAL;
  8021e2:	b8 16 00 00 00       	mov    $0x16,%eax
  8021e7:	e9 4d ff ff ff       	jmp    802139 <lwip_setsockopt+0xf4>
      break;

    default:
      LWIP_DEBUGF(SOCKETS_DEBUG, ("lwip_setsockopt(%d, IPPROTO_TCP, UNIMPL: optname=0x%x, ..)\n",
                  s, optname));
      err = ENOPROTOOPT;
  8021ec:	b8 5c 00 00 00       	mov    $0x5c,%eax
  8021f1:	e9 43 ff ff ff       	jmp    802139 <lwip_setsockopt+0xf4>

008021f6 <lwip_ioctl>:
  sys_sem_signal(sock->conn->op_completed);
}

int
lwip_ioctl(int s, long cmd, void *argp)
{
  8021f6:	55                   	push   %ebp
  8021f7:	89 e5                	mov    %esp,%ebp
  8021f9:	56                   	push   %esi
  8021fa:	53                   	push   %ebx
  8021fb:	8b 75 0c             	mov    0xc(%ebp),%esi
  8021fe:	8b 5d 10             	mov    0x10(%ebp),%ebx
  struct lwip_socket *sock = get_socket(s);
  802201:	8b 45 08             	mov    0x8(%ebp),%eax
  802204:	e8 37 e7 ff ff       	call   800940 <get_socket>
  u16_t buflen = 0;

  if (!sock)
  802209:	85 c0                	test   %eax,%eax
  80220b:	0f 84 a6 00 00 00    	je     8022b7 <lwip_ioctl+0xc1>
    return -1;

  switch (cmd) {
  802211:	81 fe 7e 66 04 80    	cmp    $0x8004667e,%esi
  802217:	74 57                	je     802270 <lwip_ioctl+0x7a>
  802219:	81 fe 7f 66 04 40    	cmp    $0x4004667f,%esi
  80221f:	75 7e                	jne    80229f <lwip_ioctl+0xa9>
  case FIONREAD:
    if (!argp) {
  802221:	85 db                	test   %ebx,%ebx
  802223:	75 18                	jne    80223d <lwip_ioctl+0x47>
      sock_set_errno(sock, EINVAL);
  802225:	c7 40 10 16 00 00 00 	movl   $0x16,0x10(%eax)
  80222c:	c7 05 20 c2 b3 00 16 	movl   $0x16,0xb3c220
  802233:	00 00 00 
      return -1;
  802236:	b8 ff ff ff ff       	mov    $0xffffffff,%eax
  80223b:	eb 7f                	jmp    8022bc <lwip_ioctl+0xc6>
    }

    SYS_ARCH_GET(sock->conn->recv_avail, *((u16_t*)argp));
  80223d:	8b 10                	mov    (%eax),%edx
  80223f:	8b 52 20             	mov    0x20(%edx),%edx
  802242:	66 89 13             	mov    %dx,(%ebx)

    /* Check if there is data left from the last recv operation. /maq 041215 */
    if (sock->lastdata) {
  802245:	8b 48 04             	mov    0x4(%eax),%ecx
  802248:	85 c9                	test   %ecx,%ecx
  80224a:	74 0c                	je     802258 <lwip_ioctl+0x62>
      buflen = netbuf_len(sock->lastdata);
  80224c:	8b 09                	mov    (%ecx),%ecx
      buflen -= sock->lastoffset;
  80224e:	03 51 08             	add    0x8(%ecx),%edx

      *((u16_t*)argp) += buflen;
  802251:	66 2b 50 08          	sub    0x8(%eax),%dx
  802255:	66 89 13             	mov    %dx,(%ebx)
    }

    LWIP_DEBUGF(SOCKETS_DEBUG, ("lwip_ioctl(%d, FIONREAD, %p) = %u\n", s, argp, *((u16_t*)argp)));
    sock_set_errno(sock, 0);
  802258:	c7 40 10 00 00 00 00 	movl   $0x0,0x10(%eax)
  80225f:	c7 05 20 c2 b3 00 00 	movl   $0x0,0xb3c220
  802266:	00 00 00 
    return 0;
  802269:	b8 00 00 00 00       	mov    $0x0,%eax
  80226e:	eb 4c                	jmp    8022bc <lwip_ioctl+0xc6>

  case FIONBIO:
    if (argp && *(u32_t*)argp)
  802270:	85 db                	test   %ebx,%ebx
  802272:	74 0d                	je     802281 <lwip_ioctl+0x8b>
  802274:	83 3b 00             	cmpl   $0x0,(%ebx)
  802277:	74 08                	je     802281 <lwip_ioctl+0x8b>
      sock->flags |= O_NONBLOCK;
  802279:	66 81 48 0e 00 08    	orw    $0x800,0xe(%eax)
  80227f:	eb 06                	jmp    802287 <lwip_ioctl+0x91>
    else
      sock->flags &= ~O_NONBLOCK;
  802281:	66 81 60 0e ff f7    	andw   $0xf7ff,0xe(%eax)
    LWIP_DEBUGF(SOCKETS_DEBUG, ("lwip_ioctl(%d, FIONBIO, %d)\n", s, !!(sock->flags & O_NONBLOCK)));
    sock_set_errno(sock, 0);
  802287:	c7 40 10 00 00 00 00 	movl   $0x0,0x10(%eax)
  80228e:	c7 05 20 c2 b3 00 00 	movl   $0x0,0xb3c220
  802295:	00 00 00 
    return 0;
  802298:	b8 00 00 00 00       	mov    $0x0,%eax
  80229d:	eb 1d                	jmp    8022bc <lwip_ioctl+0xc6>

  default:
    LWIP_DEBUGF(SOCKETS_DEBUG, ("lwip_ioctl(%d, UNIMPL: 0x%lx, %p)\n", s, cmd, argp));
    sock_set_errno(sock, ENOSYS); /* not yet implemented */
  80229f:	c7 40 10 26 00 00 00 	movl   $0x26,0x10(%eax)
  8022a6:	c7 05 20 c2 b3 00 26 	movl   $0x26,0xb3c220
  8022ad:	00 00 00 
    return -1;
  8022b0:	b8 ff ff ff ff       	mov    $0xffffffff,%eax
  8022b5:	eb 05                	jmp    8022bc <lwip_ioctl+0xc6>
{
  struct lwip_socket *sock = get_socket(s);
  u16_t buflen = 0;

  if (!sock)
    return -1;
  8022b7:	b8 ff ff ff ff       	mov    $0xffffffff,%eax
  default:
    LWIP_DEBUGF(SOCKETS_DEBUG, ("lwip_ioctl(%d, UNIMPL: 0x%lx, %p)\n", s, cmd, argp));
    sock_set_errno(sock, ENOSYS); /* not yet implemented */
    return -1;
  } /* switch (cmd) */
}
  8022bc:	5b                   	pop    %ebx
  8022bd:	5e                   	pop    %esi
  8022be:	5d                   	pop    %ebp
  8022bf:	c3                   	ret    

008022c0 <pbuf_free_int>:
 *
 * @param p The pbuf (chain) to be dereferenced.
 */
static void
pbuf_free_int(void *p)
{
  8022c0:	55                   	push   %ebp
  8022c1:	89 e5                	mov    %esp,%ebp
  8022c3:	83 ec 18             	sub    $0x18,%esp
  struct pbuf *q = p;
  pbuf_free(q);
  8022c6:	8b 45 08             	mov    0x8(%ebp),%eax
  8022c9:	89 04 24             	mov    %eax,(%esp)
  8022cc:	e8 80 2a 00 00       	call   804d51 <pbuf_free>
}
  8022d1:	c9                   	leave  
  8022d2:	c3                   	ret    

008022d3 <tcpip_thread>:
 *
 * @param arg unused argument
 */
static void
tcpip_thread(void *arg)
{
  8022d3:	55                   	push   %ebp
  8022d4:	89 e5                	mov    %esp,%ebp
  8022d6:	53                   	push   %ebx
  8022d7:	83 ec 24             	sub    $0x24,%esp
  struct tcpip_msg *msg;
  LWIP_UNUSED_ARG(arg);

#if IP_REASSEMBLY
  sys_timeout(IP_TMR_INTERVAL, ip_reass_timer, NULL);
  8022da:	c7 44 24 08 00 00 00 	movl   $0x0,0x8(%esp)
  8022e1:	00 
  8022e2:	c7 44 24 04 be 24 80 	movl   $0x8024be,0x4(%esp)
  8022e9:	00 
  8022ea:	c7 04 24 e8 03 00 00 	movl   $0x3e8,(%esp)
  8022f1:	e8 03 34 00 00       	call   8056f9 <sys_timeout>
#endif /* IP_REASSEMBLY */
#if LWIP_ARP
  sys_timeout(ARP_TMR_INTERVAL, arp_timer, NULL);
  8022f6:	c7 44 24 08 00 00 00 	movl   $0x0,0x8(%esp)
  8022fd:	00 
  8022fe:	c7 44 24 04 95 24 80 	movl   $0x802495,0x4(%esp)
  802305:	00 
  802306:	c7 04 24 88 13 00 00 	movl   $0x1388,(%esp)
  80230d:	e8 e7 33 00 00       	call   8056f9 <sys_timeout>
#endif /* LWIP_ARP */
#if LWIP_DHCP
  sys_timeout(DHCP_COARSE_TIMER_MSECS, dhcp_timer_coarse, NULL);
  802312:	c7 44 24 08 00 00 00 	movl   $0x0,0x8(%esp)
  802319:	00 
  80231a:	c7 44 24 04 6c 24 80 	movl   $0x80246c,0x4(%esp)
  802321:	00 
  802322:	c7 04 24 60 ea 00 00 	movl   $0xea60,(%esp)
  802329:	e8 cb 33 00 00       	call   8056f9 <sys_timeout>
  sys_timeout(DHCP_FINE_TIMER_MSECS, dhcp_timer_fine, NULL);
  80232e:	c7 44 24 08 00 00 00 	movl   $0x0,0x8(%esp)
  802335:	00 
  802336:	c7 44 24 04 43 24 80 	movl   $0x802443,0x4(%esp)
  80233d:	00 
  80233e:	c7 04 24 f4 01 00 00 	movl   $0x1f4,(%esp)
  802345:	e8 af 33 00 00       	call   8056f9 <sys_timeout>
#endif /* LWIP_IGMP */
#if LWIP_DNS
  sys_timeout(DNS_TMR_INTERVAL, dns_timer, NULL);
#endif /* LWIP_DNS */

  if (tcpip_init_done != NULL) {
  80234a:	a1 08 63 81 00       	mov    0x816308,%eax
  80234f:	85 c0                	test   %eax,%eax
  802351:	74 0b                	je     80235e <tcpip_thread+0x8b>
    tcpip_init_done(tcpip_init_done_arg);
  802353:	8b 15 0c 63 81 00    	mov    0x81630c,%edx
  802359:	89 14 24             	mov    %edx,(%esp)
  80235c:	ff d0                	call   *%eax
  }

  LOCK_TCPIP_CORE();
  while (1) {                          /* MAIN Loop */
    sys_mbox_fetch(mbox, (void *)&msg);
  80235e:	8d 5d f4             	lea    -0xc(%ebp),%ebx
  802361:	89 5c 24 04          	mov    %ebx,0x4(%esp)
  802365:	a1 00 50 81 00       	mov    0x815000,%eax
  80236a:	89 04 24             	mov    %eax,(%esp)
  80236d:	e8 5f 32 00 00       	call   8055d1 <sys_mbox_fetch>
    switch (msg->type) {
  802372:	8b 45 f4             	mov    -0xc(%ebp),%eax
  802375:	8b 10                	mov    (%eax),%edx
  802377:	83 fa 01             	cmp    $0x1,%edx
  80237a:	74 1e                	je     80239a <tcpip_thread+0xc7>
  80237c:	83 fa 01             	cmp    $0x1,%edx
  80237f:	72 0c                	jb     80238d <tcpip_thread+0xba>
  802381:	83 fa 02             	cmp    $0x2,%edx
  802384:	74 52                	je     8023d8 <tcpip_thread+0x105>
  802386:	83 fa 03             	cmp    $0x3,%edx
  802389:	75 d6                	jne    802361 <tcpip_thread+0x8e>
  80238b:	eb 6c                	jmp    8023f9 <tcpip_thread+0x126>
#if LWIP_NETCONN
    case TCPIP_MSG_API:
      LWIP_DEBUGF(TCPIP_DEBUG, ("tcpip_thread: API message %p\n", (void *)msg));
      msg->msg.apimsg->function(&(msg->msg.apimsg->msg));
  80238d:	8b 40 08             	mov    0x8(%eax),%eax
  802390:	8d 50 04             	lea    0x4(%eax),%edx
  802393:	89 14 24             	mov    %edx,(%esp)
  802396:	ff 10                	call   *(%eax)
      break;
  802398:	eb c7                	jmp    802361 <tcpip_thread+0x8e>
#endif /* LWIP_NETCONN */

    case TCPIP_MSG_INPKT:
      LWIP_DEBUGF(TCPIP_DEBUG, ("tcpip_thread: PACKET %p\n", (void *)msg));
#if LWIP_ARP
      if (msg->msg.inp.netif->flags & NETIF_FLAG_ETHARP) {
  80239a:	8b 50 0c             	mov    0xc(%eax),%edx
  80239d:	f6 42 2e 20          	testb  $0x20,0x2e(%edx)
  8023a1:	74 11                	je     8023b4 <tcpip_thread+0xe1>
        ethernet_input(msg->msg.inp.p, msg->msg.inp.netif);
  8023a3:	89 54 24 04          	mov    %edx,0x4(%esp)
  8023a7:	8b 40 08             	mov    0x8(%eax),%eax
  8023aa:	89 04 24             	mov    %eax,(%esp)
  8023ad:	e8 44 7f 00 00       	call   80a2f6 <ethernet_input>
  8023b2:	eb 0f                	jmp    8023c3 <tcpip_thread+0xf0>
      } else
#endif /* LWIP_ARP */
      { ip_input(msg->msg.inp.p, msg->msg.inp.netif);
  8023b4:	89 54 24 04          	mov    %edx,0x4(%esp)
  8023b8:	8b 40 08             	mov    0x8(%eax),%eax
  8023bb:	89 04 24             	mov    %eax,(%esp)
  8023be:	e8 70 46 00 00       	call   806a33 <ip_input>
      }
      memp_free(MEMP_TCPIP_MSG_INPKT, msg);
  8023c3:	8b 45 f4             	mov    -0xc(%ebp),%eax
  8023c6:	89 44 24 04          	mov    %eax,0x4(%esp)
  8023ca:	c7 04 24 09 00 00 00 	movl   $0x9,(%esp)
  8023d1:	e8 f0 25 00 00       	call   8049c6 <memp_free>
      break;
  8023d6:	eb 89                	jmp    802361 <tcpip_thread+0x8e>
      break;
#endif /* LWIP_NETIF_API */

    case TCPIP_MSG_CALLBACK:
      LWIP_DEBUGF(TCPIP_DEBUG, ("tcpip_thread: CALLBACK %p\n", (void *)msg));
      msg->msg.cb.f(msg->msg.cb.ctx);
  8023d8:	8b 50 0c             	mov    0xc(%eax),%edx
  8023db:	89 14 24             	mov    %edx,(%esp)
  8023de:	ff 50 08             	call   *0x8(%eax)
      memp_free(MEMP_TCPIP_MSG_API, msg);
  8023e1:	8b 45 f4             	mov    -0xc(%ebp),%eax
  8023e4:	89 44 24 04          	mov    %eax,0x4(%esp)
  8023e8:	c7 04 24 08 00 00 00 	movl   $0x8,(%esp)
  8023ef:	e8 d2 25 00 00       	call   8049c6 <memp_free>
      break;
  8023f4:	e9 68 ff ff ff       	jmp    802361 <tcpip_thread+0x8e>

    case TCPIP_MSG_TIMEOUT:
      LWIP_DEBUGF(TCPIP_DEBUG, ("tcpip_thread: TIMEOUT %p\n", (void *)msg));

      if(msg->msg.tmo.msecs != 0xffffffff)
  8023f9:	8b 50 08             	mov    0x8(%eax),%edx
  8023fc:	83 fa ff             	cmp    $0xffffffff,%edx
  8023ff:	74 18                	je     802419 <tcpip_thread+0x146>
        sys_timeout (msg->msg.tmo.msecs, msg->msg.tmo.h, msg->msg.tmo.arg);
  802401:	8b 48 10             	mov    0x10(%eax),%ecx
  802404:	89 4c 24 08          	mov    %ecx,0x8(%esp)
  802408:	8b 40 0c             	mov    0xc(%eax),%eax
  80240b:	89 44 24 04          	mov    %eax,0x4(%esp)
  80240f:	89 14 24             	mov    %edx,(%esp)
  802412:	e8 e2 32 00 00       	call   8056f9 <sys_timeout>
  802417:	eb 12                	jmp    80242b <tcpip_thread+0x158>
      else
        sys_untimeout (msg->msg.tmo.h, msg->msg.tmo.arg);
  802419:	8b 50 10             	mov    0x10(%eax),%edx
  80241c:	89 54 24 04          	mov    %edx,0x4(%esp)
  802420:	8b 40 0c             	mov    0xc(%eax),%eax
  802423:	89 04 24             	mov    %eax,(%esp)
  802426:	e8 8b 33 00 00       	call   8057b6 <sys_untimeout>
      memp_free(MEMP_TCPIP_MSG_API, msg);
  80242b:	8b 45 f4             	mov    -0xc(%ebp),%eax
  80242e:	89 44 24 04          	mov    %eax,0x4(%esp)
  802432:	c7 04 24 08 00 00 00 	movl   $0x8,(%esp)
  802439:	e8 88 25 00 00       	call   8049c6 <memp_free>
      break;
  80243e:	e9 1e ff ff ff       	jmp    802361 <tcpip_thread+0x8e>

00802443 <dhcp_timer_fine>:
 *
 * @param arg unused argument
 */
static void
dhcp_timer_fine(void *arg)
{
  802443:	55                   	push   %ebp
  802444:	89 e5                	mov    %esp,%ebp
  802446:	83 ec 18             	sub    $0x18,%esp
  LWIP_UNUSED_ARG(arg);
  LWIP_DEBUGF(TCPIP_DEBUG, ("tcpip: dhcp_fine_tmr()\n"));
  dhcp_fine_tmr();
  802449:	e8 41 1d 00 00       	call   80418f <dhcp_fine_tmr>
  sys_timeout(DHCP_FINE_TIMER_MSECS, dhcp_timer_fine, NULL);
  80244e:	c7 44 24 08 00 00 00 	movl   $0x0,0x8(%esp)
  802455:	00 
  802456:	c7 44 24 04 43 24 80 	movl   $0x802443,0x4(%esp)
  80245d:	00 
  80245e:	c7 04 24 f4 01 00 00 	movl   $0x1f4,(%esp)
  802465:	e8 8f 32 00 00       	call   8056f9 <sys_timeout>
}
  80246a:	c9                   	leave  
  80246b:	c3                   	ret    

0080246c <dhcp_timer_coarse>:
 *
 * @param arg unused argument
 */
static void
dhcp_timer_coarse(void *arg)
{
  80246c:	55                   	push   %ebp
  80246d:	89 e5                	mov    %esp,%ebp
  80246f:	83 ec 18             	sub    $0x18,%esp
  LWIP_UNUSED_ARG(arg);
  LWIP_DEBUGF(TCPIP_DEBUG, ("tcpip: dhcp_coarse_tmr()\n"));
  dhcp_coarse_tmr();
  802472:	e8 31 1b 00 00       	call   803fa8 <dhcp_coarse_tmr>
  sys_timeout(DHCP_COARSE_TIMER_MSECS, dhcp_timer_coarse, NULL);
  802477:	c7 44 24 08 00 00 00 	movl   $0x0,0x8(%esp)
  80247e:	00 
  80247f:	c7 44 24 04 6c 24 80 	movl   $0x80246c,0x4(%esp)
  802486:	00 
  802487:	c7 04 24 60 ea 00 00 	movl   $0xea60,(%esp)
  80248e:	e8 66 32 00 00       	call   8056f9 <sys_timeout>
}
  802493:	c9                   	leave  
  802494:	c3                   	ret    

00802495 <arp_timer>:
 *
 * @param arg unused argument
 */
static void
arp_timer(void *arg)
{
  802495:	55                   	push   %ebp
  802496:	89 e5                	mov    %esp,%ebp
  802498:	83 ec 18             	sub    $0x18,%esp
  LWIP_UNUSED_ARG(arg);
  LWIP_DEBUGF(TCPIP_DEBUG, ("tcpip: etharp_tmr()\n"));
  etharp_tmr();
  80249b:	e8 f1 76 00 00       	call   809b91 <etharp_tmr>
  sys_timeout(ARP_TMR_INTERVAL, arp_timer, NULL);
  8024a0:	c7 44 24 08 00 00 00 	movl   $0x0,0x8(%esp)
  8024a7:	00 
  8024a8:	c7 44 24 04 95 24 80 	movl   $0x802495,0x4(%esp)
  8024af:	00 
  8024b0:	c7 04 24 88 13 00 00 	movl   $0x1388,(%esp)
  8024b7:	e8 3d 32 00 00       	call   8056f9 <sys_timeout>
}
  8024bc:	c9                   	leave  
  8024bd:	c3                   	ret    

008024be <ip_reass_timer>:
 *
 * @param arg unused argument
 */
static void
ip_reass_timer(void *arg)
{
  8024be:	55                   	push   %ebp
  8024bf:	89 e5                	mov    %esp,%ebp
  8024c1:	83 ec 18             	sub    $0x18,%esp
  LWIP_UNUSED_ARG(arg);
  LWIP_DEBUGF(TCPIP_DEBUG, ("tcpip: ip_reass_tmr()\n"));
  ip_reass_tmr();
  8024c4:	e8 12 4c 00 00       	call   8070db <ip_reass_tmr>
  sys_timeout(IP_TMR_INTERVAL, ip_reass_timer, NULL);
  8024c9:	c7 44 24 08 00 00 00 	movl   $0x0,0x8(%esp)
  8024d0:	00 
  8024d1:	c7 44 24 04 be 24 80 	movl   $0x8024be,0x4(%esp)
  8024d8:	00 
  8024d9:	c7 04 24 e8 03 00 00 	movl   $0x3e8,(%esp)
  8024e0:	e8 14 32 00 00       	call   8056f9 <sys_timeout>
}
  8024e5:	c9                   	leave  
  8024e6:	c3                   	ret    

008024e7 <tcpip_tcp_timer>:
 *
 * @param arg unused argument
 */
static void
tcpip_tcp_timer(void *arg)
{
  8024e7:	55                   	push   %ebp
  8024e8:	89 e5                	mov    %esp,%ebp
  8024ea:	83 ec 18             	sub    $0x18,%esp
  LWIP_UNUSED_ARG(arg);

  /* call TCP timer handler */
  tcp_tmr();
  8024ed:	e8 bd 3f 00 00       	call   8064af <tcp_tmr>
  /* timer still needed? */
  if (tcp_active_pcbs || tcp_tw_pcbs) {
  8024f2:	83 3d 7c c2 b3 00 00 	cmpl   $0x0,0xb3c27c
  8024f9:	75 09                	jne    802504 <tcpip_tcp_timer+0x1d>
  8024fb:	83 3d 90 c2 b3 00 00 	cmpl   $0x0,0xb3c290
  802502:	74 1e                	je     802522 <tcpip_tcp_timer+0x3b>
    /* restart timer */
    sys_timeout(TCP_TMR_INTERVAL, tcpip_tcp_timer, NULL);
  802504:	c7 44 24 08 00 00 00 	movl   $0x0,0x8(%esp)
  80250b:	00 
  80250c:	c7 44 24 04 e7 24 80 	movl   $0x8024e7,0x4(%esp)
  802513:	00 
  802514:	c7 04 24 fa 00 00 00 	movl   $0xfa,(%esp)
  80251b:	e8 d9 31 00 00       	call   8056f9 <sys_timeout>
  802520:	eb 0a                	jmp    80252c <tcpip_tcp_timer+0x45>
  } else {
    /* disable timer */
    tcpip_tcp_timer_active = 0;
  802522:	c7 05 04 63 81 00 00 	movl   $0x0,0x816304
  802529:	00 00 00 
  }
}
  80252c:	c9                   	leave  
  80252d:	c3                   	ret    

0080252e <tcp_timer_needed>:
 * the reason is to have the TCP timer only running when
 * there are active (or time-wait) PCBs.
 */
void
tcp_timer_needed(void)
{
  80252e:	55                   	push   %ebp
  80252f:	89 e5                	mov    %esp,%ebp
  802531:	83 ec 18             	sub    $0x18,%esp
  /* timer is off but needed again? */
  if (!tcpip_tcp_timer_active && (tcp_active_pcbs || tcp_tw_pcbs)) {
  802534:	83 3d 04 63 81 00 00 	cmpl   $0x0,0x816304
  80253b:	75 38                	jne    802575 <tcp_timer_needed+0x47>
  80253d:	83 3d 7c c2 b3 00 00 	cmpl   $0x0,0xb3c27c
  802544:	75 09                	jne    80254f <tcp_timer_needed+0x21>
  802546:	83 3d 90 c2 b3 00 00 	cmpl   $0x0,0xb3c290
  80254d:	74 26                	je     802575 <tcp_timer_needed+0x47>
    /* enable and start timer */
    tcpip_tcp_timer_active = 1;
  80254f:	c7 05 04 63 81 00 01 	movl   $0x1,0x816304
  802556:	00 00 00 
    sys_timeout(TCP_TMR_INTERVAL, tcpip_tcp_timer, NULL);
  802559:	c7 44 24 08 00 00 00 	movl   $0x0,0x8(%esp)
  802560:	00 
  802561:	c7 44 24 04 e7 24 80 	movl   $0x8024e7,0x4(%esp)
  802568:	00 
  802569:	c7 04 24 fa 00 00 00 	movl   $0xfa,(%esp)
  802570:	e8 84 31 00 00       	call   8056f9 <sys_timeout>
  }
}
  802575:	c9                   	leave  
  802576:	c3                   	ret    

00802577 <tcpip_input>:
 *          to an IP header (if netif doesn't got NETIF_FLAG_ETHARP flag)
 * @param inp the network interface on which the packet was received
 */
err_t
tcpip_input(struct pbuf *p, struct netif *inp)
{
  802577:	55                   	push   %ebp
  802578:	89 e5                	mov    %esp,%ebp
  80257a:	53                   	push   %ebx
  80257b:	83 ec 14             	sub    $0x14,%esp
  struct tcpip_msg *msg;

  if (mbox != SYS_MBOX_NULL) {
  80257e:	83 3d 00 50 81 00 ff 	cmpl   $0xffffffff,0x815000
  802585:	74 4d                	je     8025d4 <tcpip_input+0x5d>
    msg = memp_malloc(MEMP_TCPIP_MSG_INPKT);
  802587:	c7 04 24 09 00 00 00 	movl   $0x9,(%esp)
  80258e:	e8 d3 23 00 00       	call   804966 <memp_malloc>
  802593:	89 c3                	mov    %eax,%ebx
    if (msg == NULL) {
  802595:	85 c0                	test   %eax,%eax
  802597:	74 3f                	je     8025d8 <tcpip_input+0x61>
      return ERR_MEM;
    }

    msg->type = TCPIP_MSG_INPKT;
  802599:	c7 00 01 00 00 00    	movl   $0x1,(%eax)
    msg->msg.inp.p = p;
  80259f:	8b 45 08             	mov    0x8(%ebp),%eax
  8025a2:	89 43 08             	mov    %eax,0x8(%ebx)
    msg->msg.inp.netif = inp;
  8025a5:	8b 45 0c             	mov    0xc(%ebp),%eax
  8025a8:	89 43 0c             	mov    %eax,0xc(%ebx)
    if (sys_mbox_trypost(mbox, msg) != ERR_OK) {
  8025ab:	89 5c 24 04          	mov    %ebx,0x4(%esp)
  8025af:	a1 00 50 81 00       	mov    0x815000,%eax
  8025b4:	89 04 24             	mov    %eax,(%esp)
  8025b7:	e8 7e 83 00 00       	call   80a93a <sys_mbox_trypost>
  8025bc:	84 c0                	test   %al,%al
  8025be:	74 1c                	je     8025dc <tcpip_input+0x65>
      memp_free(MEMP_TCPIP_MSG_INPKT, msg);
  8025c0:	89 5c 24 04          	mov    %ebx,0x4(%esp)
  8025c4:	c7 04 24 09 00 00 00 	movl   $0x9,(%esp)
  8025cb:	e8 f6 23 00 00       	call   8049c6 <memp_free>
      return ERR_MEM;
  8025d0:	b0 ff                	mov    $0xff,%al
  8025d2:	eb 0a                	jmp    8025de <tcpip_input+0x67>
    }
    return ERR_OK;
  }
  return ERR_VAL;
  8025d4:	b0 f7                	mov    $0xf7,%al
  8025d6:	eb 06                	jmp    8025de <tcpip_input+0x67>
  struct tcpip_msg *msg;

  if (mbox != SYS_MBOX_NULL) {
    msg = memp_malloc(MEMP_TCPIP_MSG_INPKT);
    if (msg == NULL) {
      return ERR_MEM;
  8025d8:	b0 ff                	mov    $0xff,%al
  8025da:	eb 02                	jmp    8025de <tcpip_input+0x67>
    msg->msg.inp.netif = inp;
    if (sys_mbox_trypost(mbox, msg) != ERR_OK) {
      memp_free(MEMP_TCPIP_MSG_INPKT, msg);
      return ERR_MEM;
    }
    return ERR_OK;
  8025dc:	b0 00                	mov    $0x0,%al
  }
  return ERR_VAL;
}
  8025de:	83 c4 14             	add    $0x14,%esp
  8025e1:	5b                   	pop    %ebx
  8025e2:	5d                   	pop    %ebp
  8025e3:	c3                   	ret    

008025e4 <tcpip_callback_with_block>:
 * @param block 1 to block until the request is posted, 0 to non-blocking mode
 * @return ERR_OK if the function was called, another err_t if not
 */
err_t
tcpip_callback_with_block(void (*f)(void *ctx), void *ctx, u8_t block)
{
  8025e4:	55                   	push   %ebp
  8025e5:	89 e5                	mov    %esp,%ebp
  8025e7:	53                   	push   %ebx
  8025e8:	83 ec 24             	sub    $0x24,%esp
  8025eb:	8a 45 10             	mov    0x10(%ebp),%al
  8025ee:	88 45 f7             	mov    %al,-0x9(%ebp)
  struct tcpip_msg *msg;

  if (mbox != SYS_MBOX_NULL) {
  8025f1:	83 3d 00 50 81 00 ff 	cmpl   $0xffffffff,0x815000
  8025f8:	74 68                	je     802662 <tcpip_callback_with_block+0x7e>
    msg = memp_malloc(MEMP_TCPIP_MSG_API);
  8025fa:	c7 04 24 08 00 00 00 	movl   $0x8,(%esp)
  802601:	e8 60 23 00 00       	call   804966 <memp_malloc>
  802606:	89 c3                	mov    %eax,%ebx
    if (msg == NULL) {
  802608:	85 c0                	test   %eax,%eax
  80260a:	74 5a                	je     802666 <tcpip_callback_with_block+0x82>
      return ERR_MEM;
    }

    msg->type = TCPIP_MSG_CALLBACK;
  80260c:	c7 00 02 00 00 00    	movl   $0x2,(%eax)
    msg->msg.cb.f = f;
  802612:	8b 45 08             	mov    0x8(%ebp),%eax
  802615:	89 43 08             	mov    %eax,0x8(%ebx)
    msg->msg.cb.ctx = ctx;
  802618:	8b 45 0c             	mov    0xc(%ebp),%eax
  80261b:	89 43 0c             	mov    %eax,0xc(%ebx)
    if (block) {
  80261e:	80 7d f7 00          	cmpb   $0x0,-0x9(%ebp)
  802622:	74 15                	je     802639 <tcpip_callback_with_block+0x55>
      sys_mbox_post(mbox, msg);
  802624:	89 5c 24 04          	mov    %ebx,0x4(%esp)
  802628:	a1 00 50 81 00       	mov    0x815000,%eax
  80262d:	89 04 24             	mov    %eax,(%esp)
  802630:	e8 f6 83 00 00       	call   80aa2b <sys_mbox_post>
      if (sys_mbox_trypost(mbox, msg) != ERR_OK) {
        memp_free(MEMP_TCPIP_MSG_API, msg);
        return ERR_MEM;
      }
    }
    return ERR_OK;
  802635:	b0 00                	mov    $0x0,%al
  802637:	eb 33                	jmp    80266c <tcpip_callback_with_block+0x88>
    msg->msg.cb.f = f;
    msg->msg.cb.ctx = ctx;
    if (block) {
      sys_mbox_post(mbox, msg);
    } else {
      if (sys_mbox_trypost(mbox, msg) != ERR_OK) {
  802639:	89 5c 24 04          	mov    %ebx,0x4(%esp)
  80263d:	a1 00 50 81 00       	mov    0x815000,%eax
  802642:	89 04 24             	mov    %eax,(%esp)
  802645:	e8 f0 82 00 00       	call   80a93a <sys_mbox_trypost>
  80264a:	84 c0                	test   %al,%al
  80264c:	74 1c                	je     80266a <tcpip_callback_with_block+0x86>
        memp_free(MEMP_TCPIP_MSG_API, msg);
  80264e:	89 5c 24 04          	mov    %ebx,0x4(%esp)
  802652:	c7 04 24 08 00 00 00 	movl   $0x8,(%esp)
  802659:	e8 68 23 00 00       	call   8049c6 <memp_free>
        return ERR_MEM;
  80265e:	b0 ff                	mov    $0xff,%al
  802660:	eb 0a                	jmp    80266c <tcpip_callback_with_block+0x88>
      }
    }
    return ERR_OK;
  }
  return ERR_VAL;
  802662:	b0 f7                	mov    $0xf7,%al
  802664:	eb 06                	jmp    80266c <tcpip_callback_with_block+0x88>
  struct tcpip_msg *msg;

  if (mbox != SYS_MBOX_NULL) {
    msg = memp_malloc(MEMP_TCPIP_MSG_API);
    if (msg == NULL) {
      return ERR_MEM;
  802666:	b0 ff                	mov    $0xff,%al
  802668:	eb 02                	jmp    80266c <tcpip_callback_with_block+0x88>
      if (sys_mbox_trypost(mbox, msg) != ERR_OK) {
        memp_free(MEMP_TCPIP_MSG_API, msg);
        return ERR_MEM;
      }
    }
    return ERR_OK;
  80266a:	b0 00                	mov    $0x0,%al
  }
  return ERR_VAL;
}
  80266c:	83 c4 24             	add    $0x24,%esp
  80266f:	5b                   	pop    %ebx
  802670:	5d                   	pop    %ebp
  802671:	c3                   	ret    

00802672 <tcpip_timeout>:

err_t
tcpip_timeout(u32_t msecs, sys_timeout_handler h, void *arg)
{
  802672:	55                   	push   %ebp
  802673:	89 e5                	mov    %esp,%ebp
  802675:	83 ec 18             	sub    $0x18,%esp
  struct tcpip_msg *msg;

  if (mbox != SYS_MBOX_NULL) {
  802678:	83 3d 00 50 81 00 ff 	cmpl   $0xffffffff,0x815000
  80267f:	74 3d                	je     8026be <tcpip_timeout+0x4c>
    msg = memp_malloc(MEMP_TCPIP_MSG_API);
  802681:	c7 04 24 08 00 00 00 	movl   $0x8,(%esp)
  802688:	e8 d9 22 00 00       	call   804966 <memp_malloc>
    if (msg == NULL) {
  80268d:	85 c0                	test   %eax,%eax
  80268f:	74 31                	je     8026c2 <tcpip_timeout+0x50>
      return ERR_MEM;
    }

    msg->type = TCPIP_MSG_TIMEOUT;
  802691:	c7 00 03 00 00 00    	movl   $0x3,(%eax)
    msg->msg.tmo.msecs = msecs;
  802697:	8b 55 08             	mov    0x8(%ebp),%edx
  80269a:	89 50 08             	mov    %edx,0x8(%eax)
    msg->msg.tmo.h = h;
  80269d:	8b 55 0c             	mov    0xc(%ebp),%edx
  8026a0:	89 50 0c             	mov    %edx,0xc(%eax)
    msg->msg.tmo.arg = arg;
  8026a3:	8b 55 10             	mov    0x10(%ebp),%edx
  8026a6:	89 50 10             	mov    %edx,0x10(%eax)
    sys_mbox_post(mbox, msg);
  8026a9:	89 44 24 04          	mov    %eax,0x4(%esp)
  8026ad:	a1 00 50 81 00       	mov    0x815000,%eax
  8026b2:	89 04 24             	mov    %eax,(%esp)
  8026b5:	e8 71 83 00 00       	call   80aa2b <sys_mbox_post>
    return ERR_OK;
  8026ba:	b0 00                	mov    $0x0,%al
  8026bc:	eb 06                	jmp    8026c4 <tcpip_timeout+0x52>
  }
  return ERR_VAL;
  8026be:	b0 f7                	mov    $0xf7,%al
  8026c0:	eb 02                	jmp    8026c4 <tcpip_timeout+0x52>
  struct tcpip_msg *msg;

  if (mbox != SYS_MBOX_NULL) {
    msg = memp_malloc(MEMP_TCPIP_MSG_API);
    if (msg == NULL) {
      return ERR_MEM;
  8026c2:	b0 ff                	mov    $0xff,%al
    msg->msg.tmo.arg = arg;
    sys_mbox_post(mbox, msg);
    return ERR_OK;
  }
  return ERR_VAL;
}
  8026c4:	c9                   	leave  
  8026c5:	c3                   	ret    

008026c6 <tcpip_apimsg>:
 * @param apimsg a struct containing the function to call and its parameters
 * @return ERR_OK if the function was called, another err_t if not
 */
err_t
tcpip_apimsg(struct api_msg *apimsg)
{
  8026c6:	55                   	push   %ebp
  8026c7:	89 e5                	mov    %esp,%ebp
  8026c9:	53                   	push   %ebx
  8026ca:	83 ec 34             	sub    $0x34,%esp
  8026cd:	8b 5d 08             	mov    0x8(%ebp),%ebx
  struct tcpip_msg msg;
  
  if (mbox != SYS_MBOX_NULL) {
  8026d0:	a1 00 50 81 00       	mov    0x815000,%eax
  8026d5:	83 f8 ff             	cmp    $0xffffffff,%eax
  8026d8:	74 33                	je     80270d <tcpip_apimsg+0x47>
    msg.type = TCPIP_MSG_API;
  8026da:	c7 45 e4 00 00 00 00 	movl   $0x0,-0x1c(%ebp)
    msg.msg.apimsg = apimsg;
  8026e1:	89 5d ec             	mov    %ebx,-0x14(%ebp)
    sys_mbox_post(mbox, &msg);
  8026e4:	8d 55 e4             	lea    -0x1c(%ebp),%edx
  8026e7:	89 54 24 04          	mov    %edx,0x4(%esp)
  8026eb:	89 04 24             	mov    %eax,(%esp)
  8026ee:	e8 38 83 00 00       	call   80aa2b <sys_mbox_post>
    sys_arch_sem_wait(apimsg->msg.conn->op_completed, 0);
  8026f3:	c7 44 24 04 00 00 00 	movl   $0x0,0x4(%esp)
  8026fa:	00 
  8026fb:	8b 43 04             	mov    0x4(%ebx),%eax
  8026fe:	8b 40 10             	mov    0x10(%eax),%eax
  802701:	89 04 24             	mov    %eax,(%esp)
  802704:	e8 1c 81 00 00       	call   80a825 <sys_arch_sem_wait>
    return ERR_OK;
  802709:	b0 00                	mov    $0x0,%al
  80270b:	eb 02                	jmp    80270f <tcpip_apimsg+0x49>
  }
  return ERR_VAL;
  80270d:	b0 f7                	mov    $0xf7,%al
}
  80270f:	83 c4 34             	add    $0x34,%esp
  802712:	5b                   	pop    %ebx
  802713:	5d                   	pop    %ebp
  802714:	c3                   	ret    

00802715 <tcpip_init>:
 * @param initfunc a function to call when tcpip_thread is running and finished initializing
 * @param arg argument to pass to initfunc
 */
void
tcpip_init(void (* initfunc)(void *), void *arg)
{
  802715:	55                   	push   %ebp
  802716:	89 e5                	mov    %esp,%ebp
  802718:	83 ec 28             	sub    $0x28,%esp
  lwip_init();
  80271b:	e8 e8 03 00 00       	call   802b08 <lwip_init>

  tcpip_init_done = initfunc;
  802720:	8b 45 08             	mov    0x8(%ebp),%eax
  802723:	a3 08 63 81 00       	mov    %eax,0x816308
  tcpip_init_done_arg = arg;
  802728:	8b 45 0c             	mov    0xc(%ebp),%eax
  80272b:	a3 0c 63 81 00       	mov    %eax,0x81630c
  mbox = sys_mbox_new(TCPIP_MBOX_SIZE);
  802730:	c7 04 24 00 00 00 00 	movl   $0x0,(%esp)
  802737:	e8 50 7f 00 00       	call   80a68c <sys_mbox_new>
  80273c:	a3 00 50 81 00       	mov    %eax,0x815000
#if LWIP_TCPIP_CORE_LOCKING
  lock_tcpip_core = sys_sem_new(1);
#endif /* LWIP_TCPIP_CORE_LOCKING */

  sys_thread_new(TCPIP_THREAD_NAME, tcpip_thread, NULL, TCPIP_THREAD_STACKSIZE, TCPIP_THREAD_PRIO);
  802741:	c7 44 24 10 01 00 00 	movl   $0x1,0x10(%esp)
  802748:	00 
  802749:	c7 44 24 0c 00 00 00 	movl   $0x0,0xc(%esp)
  802750:	00 
  802751:	c7 44 24 08 00 00 00 	movl   $0x0,0x8(%esp)
  802758:	00 
  802759:	c7 44 24 04 d3 22 80 	movl   $0x8022d3,0x4(%esp)
  802760:	00 
  802761:	c7 04 24 fc 1c 81 00 	movl   $0x811cfc,(%esp)
  802768:	e8 2d 84 00 00       	call   80ab9a <sys_thread_new>
}
  80276d:	c9                   	leave  
  80276e:	c3                   	ret    

0080276f <pbuf_free_callback>:
 * @param p The pbuf (chain) to be dereferenced.
 * @return ERR_OK if callback could be enqueued, an err_t if not
 */
err_t
pbuf_free_callback(struct pbuf *p)
{
  80276f:	55                   	push   %ebp
  802770:	89 e5                	mov    %esp,%ebp
  802772:	83 ec 18             	sub    $0x18,%esp
  return tcpip_callback_with_block(pbuf_free_int, p, 0);
  802775:	c7 44 24 08 00 00 00 	movl   $0x0,0x8(%esp)
  80277c:	00 
  80277d:	8b 45 08             	mov    0x8(%ebp),%eax
  802780:	89 44 24 04          	mov    %eax,0x4(%esp)
  802784:	c7 04 24 c0 22 80 00 	movl   $0x8022c0,(%esp)
  80278b:	e8 54 fe ff ff       	call   8025e4 <tcpip_callback_with_block>
}
  802790:	c9                   	leave  
  802791:	c3                   	ret    

00802792 <mem_free_callback>:
 * @param m the heap memory to free
 * @return ERR_OK if callback could be enqueued, an err_t if not
 */
err_t
mem_free_callback(void *m)
{
  802792:	55                   	push   %ebp
  802793:	89 e5                	mov    %esp,%ebp
  802795:	83 ec 18             	sub    $0x18,%esp
  return tcpip_callback_with_block(mem_free, m, 0);
  802798:	c7 44 24 08 00 00 00 	movl   $0x0,0x8(%esp)
  80279f:	00 
  8027a0:	8b 45 08             	mov    0x8(%ebp),%eax
  8027a3:	89 44 24 04          	mov    %eax,0x4(%esp)
  8027a7:	c7 04 24 44 44 80 00 	movl   $0x804444,(%esp)
  8027ae:	e8 31 fe ff ff       	call   8025e4 <tcpip_callback_with_block>
}
  8027b3:	c9                   	leave  
  8027b4:	c3                   	ret    
  8027b5:	00 00                	add    %al,(%eax)
	...

008027b8 <netbuf_new>:
 * @return a pointer to a new netbuf
 *         NULL on lack of memory
 */
struct
netbuf *netbuf_new(void)
{
  8027b8:	55                   	push   %ebp
  8027b9:	89 e5                	mov    %esp,%ebp
  8027bb:	83 ec 18             	sub    $0x18,%esp
  struct netbuf *buf;

  buf = memp_malloc(MEMP_NETBUF);
  8027be:	c7 04 24 06 00 00 00 	movl   $0x6,(%esp)
  8027c5:	e8 9c 21 00 00       	call   804966 <memp_malloc>
  if (buf != NULL) {
  8027ca:	85 c0                	test   %eax,%eax
  8027cc:	74 14                	je     8027e2 <netbuf_new+0x2a>
    buf->p = NULL;
  8027ce:	c7 00 00 00 00 00    	movl   $0x0,(%eax)
    buf->ptr = NULL;
  8027d4:	c7 40 04 00 00 00 00 	movl   $0x0,0x4(%eax)
    buf->addr = NULL;
  8027db:	c7 40 08 00 00 00 00 	movl   $0x0,0x8(%eax)
    return buf;
  } else {
    return NULL;
  }
}
  8027e2:	c9                   	leave  
  8027e3:	c3                   	ret    

008027e4 <netbuf_delete>:
 *
 * @param buf pointer to a netbuf allocated by netbuf_new()
 */
void
netbuf_delete(struct netbuf *buf)
{
  8027e4:	55                   	push   %ebp
  8027e5:	89 e5                	mov    %esp,%ebp
  8027e7:	53                   	push   %ebx
  8027e8:	83 ec 14             	sub    $0x14,%esp
  8027eb:	8b 5d 08             	mov    0x8(%ebp),%ebx
  if (buf != NULL) {
  8027ee:	85 db                	test   %ebx,%ebx
  8027f0:	74 2b                	je     80281d <netbuf_delete+0x39>
    if (buf->p != NULL) {
  8027f2:	8b 03                	mov    (%ebx),%eax
  8027f4:	85 c0                	test   %eax,%eax
  8027f6:	74 15                	je     80280d <netbuf_delete+0x29>
      pbuf_free(buf->p);
  8027f8:	89 04 24             	mov    %eax,(%esp)
  8027fb:	e8 51 25 00 00       	call   804d51 <pbuf_free>
      buf->p = buf->ptr = NULL;
  802800:	c7 43 04 00 00 00 00 	movl   $0x0,0x4(%ebx)
  802807:	c7 03 00 00 00 00    	movl   $0x0,(%ebx)
    }
    memp_free(MEMP_NETBUF, buf);
  80280d:	89 5c 24 04          	mov    %ebx,0x4(%esp)
  802811:	c7 04 24 06 00 00 00 	movl   $0x6,(%esp)
  802818:	e8 a9 21 00 00       	call   8049c6 <memp_free>
  }
}
  80281d:	83 c4 14             	add    $0x14,%esp
  802820:	5b                   	pop    %ebx
  802821:	5d                   	pop    %ebp
  802822:	c3                   	ret    

00802823 <netbuf_alloc>:
 * @return pointer to the allocated memory
 *         NULL if no memory could be allocated
 */
void *
netbuf_alloc(struct netbuf *buf, u16_t size)
{
  802823:	55                   	push   %ebp
  802824:	89 e5                	mov    %esp,%ebp
  802826:	56                   	push   %esi
  802827:	53                   	push   %ebx
  802828:	83 ec 10             	sub    $0x10,%esp
  80282b:	8b 75 08             	mov    0x8(%ebp),%esi
  80282e:	8b 5d 0c             	mov    0xc(%ebp),%ebx
  LWIP_ERROR("netbuf_alloc: invalid buf", (buf != NULL), return NULL;);
  802831:	85 f6                	test   %esi,%esi
  802833:	75 1c                	jne    802851 <netbuf_alloc+0x2e>
  802835:	c7 44 24 08 09 1d 81 	movl   $0x811d09,0x8(%esp)
  80283c:	00 
  80283d:	c7 44 24 04 63 00 00 	movl   $0x63,0x4(%esp)
  802844:	00 
  802845:	c7 04 24 23 1d 81 00 	movl   $0x811d23,(%esp)
  80284c:	e8 2f c6 00 00       	call   80ee80 <_panic>

  /* Deallocate any previously allocated memory. */
  if (buf->p != NULL) {
  802851:	8b 06                	mov    (%esi),%eax
  802853:	85 c0                	test   %eax,%eax
  802855:	74 08                	je     80285f <netbuf_alloc+0x3c>
    pbuf_free(buf->p);
  802857:	89 04 24             	mov    %eax,(%esp)
  80285a:	e8 f2 24 00 00       	call   804d51 <pbuf_free>
  }
  buf->p = pbuf_alloc(PBUF_TRANSPORT, size, PBUF_RAM);
  80285f:	c7 44 24 08 00 00 00 	movl   $0x0,0x8(%esp)
  802866:	00 
  802867:	0f b7 c3             	movzwl %bx,%eax
  80286a:	89 44 24 04          	mov    %eax,0x4(%esp)
  80286e:	c7 04 24 00 00 00 00 	movl   $0x0,(%esp)
  802875:	e8 d8 26 00 00       	call   804f52 <pbuf_alloc>
  80287a:	89 06                	mov    %eax,(%esi)
  if (buf->p == NULL) {
  80287c:	85 c0                	test   %eax,%eax
  80287e:	74 2a                	je     8028aa <netbuf_alloc+0x87>
     return NULL;
  }
  LWIP_ASSERT("check that first pbuf can hold size",
  802880:	66 3b 58 0a          	cmp    0xa(%eax),%bx
  802884:	76 1c                	jbe    8028a2 <netbuf_alloc+0x7f>
  802886:	c7 44 24 08 f0 1d 81 	movl   $0x811df0,0x8(%esp)
  80288d:	00 
  80288e:	c7 44 24 04 6e 00 00 	movl   $0x6e,0x4(%esp)
  802895:	00 
  802896:	c7 04 24 23 1d 81 00 	movl   $0x811d23,(%esp)
  80289d:	e8 de c5 00 00       	call   80ee80 <_panic>
             (buf->p->len >= size));
  buf->ptr = buf->p;
  8028a2:	89 46 04             	mov    %eax,0x4(%esi)
  return buf->p->payload;
  8028a5:	8b 40 04             	mov    0x4(%eax),%eax
  8028a8:	eb 05                	jmp    8028af <netbuf_alloc+0x8c>
  if (buf->p != NULL) {
    pbuf_free(buf->p);
  }
  buf->p = pbuf_alloc(PBUF_TRANSPORT, size, PBUF_RAM);
  if (buf->p == NULL) {
     return NULL;
  8028aa:	b8 00 00 00 00       	mov    $0x0,%eax
  }
  LWIP_ASSERT("check that first pbuf can hold size",
             (buf->p->len >= size));
  buf->ptr = buf->p;
  return buf->p->payload;
}
  8028af:	83 c4 10             	add    $0x10,%esp
  8028b2:	5b                   	pop    %ebx
  8028b3:	5e                   	pop    %esi
  8028b4:	5d                   	pop    %ebp
  8028b5:	c3                   	ret    

008028b6 <netbuf_free>:
 *
 * @param buf pointer to the netbuf which contains the packet buffer to free
 */
void
netbuf_free(struct netbuf *buf)
{
  8028b6:	55                   	push   %ebp
  8028b7:	89 e5                	mov    %esp,%ebp
  8028b9:	53                   	push   %ebx
  8028ba:	83 ec 14             	sub    $0x14,%esp
  8028bd:	8b 5d 08             	mov    0x8(%ebp),%ebx
  LWIP_ERROR("netbuf_free: invalid buf", (buf != NULL), return;);
  8028c0:	85 db                	test   %ebx,%ebx
  8028c2:	75 1c                	jne    8028e0 <netbuf_free+0x2a>
  8028c4:	c7 44 24 08 39 1d 81 	movl   $0x811d39,0x8(%esp)
  8028cb:	00 
  8028cc:	c7 44 24 04 7b 00 00 	movl   $0x7b,0x4(%esp)
  8028d3:	00 
  8028d4:	c7 04 24 23 1d 81 00 	movl   $0x811d23,(%esp)
  8028db:	e8 a0 c5 00 00       	call   80ee80 <_panic>
  if (buf->p != NULL) {
  8028e0:	8b 03                	mov    (%ebx),%eax
  8028e2:	85 c0                	test   %eax,%eax
  8028e4:	74 08                	je     8028ee <netbuf_free+0x38>
    pbuf_free(buf->p);
  8028e6:	89 04 24             	mov    %eax,(%esp)
  8028e9:	e8 63 24 00 00       	call   804d51 <pbuf_free>
  }
  buf->p = buf->ptr = NULL;
  8028ee:	c7 43 04 00 00 00 00 	movl   $0x0,0x4(%ebx)
  8028f5:	c7 03 00 00 00 00    	movl   $0x0,(%ebx)
}
  8028fb:	83 c4 14             	add    $0x14,%esp
  8028fe:	5b                   	pop    %ebx
  8028ff:	5d                   	pop    %ebp
  802900:	c3                   	ret    

00802901 <netbuf_ref>:
 * @return ERR_OK if data is referenced
 *         ERR_MEM if data couldn't be referenced due to lack of memory
 */
err_t
netbuf_ref(struct netbuf *buf, const void *dataptr, u16_t size)
{
  802901:	55                   	push   %ebp
  802902:	89 e5                	mov    %esp,%ebp
  802904:	56                   	push   %esi
  802905:	53                   	push   %ebx
  802906:	83 ec 10             	sub    $0x10,%esp
  802909:	8b 5d 08             	mov    0x8(%ebp),%ebx
  80290c:	8b 75 10             	mov    0x10(%ebp),%esi
  LWIP_ERROR("netbuf_ref: invalid buf", (buf != NULL), return ERR_ARG;);
  80290f:	85 db                	test   %ebx,%ebx
  802911:	75 1c                	jne    80292f <netbuf_ref+0x2e>
  802913:	c7 44 24 08 52 1d 81 	movl   $0x811d52,0x8(%esp)
  80291a:	00 
  80291b:	c7 44 24 04 8e 00 00 	movl   $0x8e,0x4(%esp)
  802922:	00 
  802923:	c7 04 24 23 1d 81 00 	movl   $0x811d23,(%esp)
  80292a:	e8 51 c5 00 00       	call   80ee80 <_panic>
  if (buf->p != NULL) {
  80292f:	8b 03                	mov    (%ebx),%eax
  802931:	85 c0                	test   %eax,%eax
  802933:	74 08                	je     80293d <netbuf_ref+0x3c>
    pbuf_free(buf->p);
  802935:	89 04 24             	mov    %eax,(%esp)
  802938:	e8 14 24 00 00       	call   804d51 <pbuf_free>
  }
  buf->p = pbuf_alloc(PBUF_TRANSPORT, 0, PBUF_REF);
  80293d:	c7 44 24 08 02 00 00 	movl   $0x2,0x8(%esp)
  802944:	00 
  802945:	c7 44 24 04 00 00 00 	movl   $0x0,0x4(%esp)
  80294c:	00 
  80294d:	c7 04 24 00 00 00 00 	movl   $0x0,(%esp)
  802954:	e8 f9 25 00 00       	call   804f52 <pbuf_alloc>
  802959:	89 03                	mov    %eax,(%ebx)
  if (buf->p == NULL) {
  80295b:	85 c0                	test   %eax,%eax
  80295d:	75 0b                	jne    80296a <netbuf_ref+0x69>
    buf->ptr = NULL;
  80295f:	c7 43 04 00 00 00 00 	movl   $0x0,0x4(%ebx)
    return ERR_MEM;
  802966:	b0 ff                	mov    $0xff,%al
  802968:	eb 17                	jmp    802981 <netbuf_ref+0x80>
  }
  buf->p->payload = (void*)dataptr;
  80296a:	8b 55 0c             	mov    0xc(%ebp),%edx
  80296d:	89 50 04             	mov    %edx,0x4(%eax)
  buf->p->len = buf->p->tot_len = size;
  802970:	8b 03                	mov    (%ebx),%eax
  802972:	66 89 70 08          	mov    %si,0x8(%eax)
  802976:	66 89 70 0a          	mov    %si,0xa(%eax)
  buf->ptr = buf->p;
  80297a:	8b 03                	mov    (%ebx),%eax
  80297c:	89 43 04             	mov    %eax,0x4(%ebx)
  return ERR_OK;
  80297f:	b0 00                	mov    $0x0,%al
}
  802981:	83 c4 10             	add    $0x10,%esp
  802984:	5b                   	pop    %ebx
  802985:	5e                   	pop    %esi
  802986:	5d                   	pop    %ebp
  802987:	c3                   	ret    

00802988 <netbuf_chain>:
 * @param head the first netbuf
 * @param tail netbuf to chain after head
 */
void
netbuf_chain(struct netbuf *head, struct netbuf *tail)
{
  802988:	55                   	push   %ebp
  802989:	89 e5                	mov    %esp,%ebp
  80298b:	56                   	push   %esi
  80298c:	53                   	push   %ebx
  80298d:	83 ec 10             	sub    $0x10,%esp
  802990:	8b 5d 08             	mov    0x8(%ebp),%ebx
  802993:	8b 75 0c             	mov    0xc(%ebp),%esi
  LWIP_ERROR("netbuf_ref: invalid head", (head != NULL), return;);
  802996:	85 db                	test   %ebx,%ebx
  802998:	75 1c                	jne    8029b6 <netbuf_chain+0x2e>
  80299a:	c7 44 24 08 6a 1d 81 	movl   $0x811d6a,0x8(%esp)
  8029a1:	00 
  8029a2:	c7 44 24 04 a6 00 00 	movl   $0xa6,0x4(%esp)
  8029a9:	00 
  8029aa:	c7 04 24 23 1d 81 00 	movl   $0x811d23,(%esp)
  8029b1:	e8 ca c4 00 00       	call   80ee80 <_panic>
  LWIP_ERROR("netbuf_chain: invalid tail", (tail != NULL), return;);
  8029b6:	85 f6                	test   %esi,%esi
  8029b8:	75 1c                	jne    8029d6 <netbuf_chain+0x4e>
  8029ba:	c7 44 24 08 83 1d 81 	movl   $0x811d83,0x8(%esp)
  8029c1:	00 
  8029c2:	c7 44 24 04 a7 00 00 	movl   $0xa7,0x4(%esp)
  8029c9:	00 
  8029ca:	c7 04 24 23 1d 81 00 	movl   $0x811d23,(%esp)
  8029d1:	e8 aa c4 00 00       	call   80ee80 <_panic>
  pbuf_chain(head->p, tail->p);
  8029d6:	8b 06                	mov    (%esi),%eax
  8029d8:	89 44 24 04          	mov    %eax,0x4(%esp)
  8029dc:	8b 03                	mov    (%ebx),%eax
  8029de:	89 04 24             	mov    %eax,(%esp)
  8029e1:	e8 89 28 00 00       	call   80526f <pbuf_chain>
  head->ptr = head->p;
  8029e6:	8b 03                	mov    (%ebx),%eax
  8029e8:	89 43 04             	mov    %eax,0x4(%ebx)
  memp_free(MEMP_NETBUF, tail);
  8029eb:	89 74 24 04          	mov    %esi,0x4(%esp)
  8029ef:	c7 04 24 06 00 00 00 	movl   $0x6,(%esp)
  8029f6:	e8 cb 1f 00 00       	call   8049c6 <memp_free>
}
  8029fb:	83 c4 10             	add    $0x10,%esp
  8029fe:	5b                   	pop    %ebx
  8029ff:	5e                   	pop    %esi
  802a00:	5d                   	pop    %ebp
  802a01:	c3                   	ret    

00802a02 <netbuf_data>:
 * @return ERR_OK if the information was retreived,
 *         ERR_BUF on error.
 */
err_t
netbuf_data(struct netbuf *buf, void **dataptr, u16_t *len)
{
  802a02:	55                   	push   %ebp
  802a03:	89 e5                	mov    %esp,%ebp
  802a05:	53                   	push   %ebx
  802a06:	83 ec 14             	sub    $0x14,%esp
  802a09:	8b 45 08             	mov    0x8(%ebp),%eax
  802a0c:	8b 4d 0c             	mov    0xc(%ebp),%ecx
  802a0f:	8b 55 10             	mov    0x10(%ebp),%edx
  LWIP_ERROR("netbuf_data: invalid buf", (buf != NULL), return ERR_ARG;);
  802a12:	85 c0                	test   %eax,%eax
  802a14:	75 1c                	jne    802a32 <netbuf_data+0x30>
  802a16:	c7 44 24 08 9e 1d 81 	movl   $0x811d9e,0x8(%esp)
  802a1d:	00 
  802a1e:	c7 44 24 04 b9 00 00 	movl   $0xb9,0x4(%esp)
  802a25:	00 
  802a26:	c7 04 24 23 1d 81 00 	movl   $0x811d23,(%esp)
  802a2d:	e8 4e c4 00 00       	call   80ee80 <_panic>
  LWIP_ERROR("netbuf_data: invalid dataptr", (dataptr != NULL), return ERR_ARG;);
  802a32:	85 c9                	test   %ecx,%ecx
  802a34:	75 1c                	jne    802a52 <netbuf_data+0x50>
  802a36:	c7 44 24 08 b7 1d 81 	movl   $0x811db7,0x8(%esp)
  802a3d:	00 
  802a3e:	c7 44 24 04 ba 00 00 	movl   $0xba,0x4(%esp)
  802a45:	00 
  802a46:	c7 04 24 23 1d 81 00 	movl   $0x811d23,(%esp)
  802a4d:	e8 2e c4 00 00       	call   80ee80 <_panic>
  LWIP_ERROR("netbuf_data: invalid len", (len != NULL), return ERR_ARG;);
  802a52:	85 d2                	test   %edx,%edx
  802a54:	75 1c                	jne    802a72 <netbuf_data+0x70>
  802a56:	c7 44 24 08 d4 1d 81 	movl   $0x811dd4,0x8(%esp)
  802a5d:	00 
  802a5e:	c7 44 24 04 bb 00 00 	movl   $0xbb,0x4(%esp)
  802a65:	00 
  802a66:	c7 04 24 23 1d 81 00 	movl   $0x811d23,(%esp)
  802a6d:	e8 0e c4 00 00       	call   80ee80 <_panic>

  if (buf->ptr == NULL) {
  802a72:	8b 58 04             	mov    0x4(%eax),%ebx
  802a75:	85 db                	test   %ebx,%ebx
  802a77:	74 13                	je     802a8c <netbuf_data+0x8a>
    return ERR_BUF;
  }
  *dataptr = buf->ptr->payload;
  802a79:	8b 5b 04             	mov    0x4(%ebx),%ebx
  802a7c:	89 19                	mov    %ebx,(%ecx)
  *len = buf->ptr->len;
  802a7e:	8b 40 04             	mov    0x4(%eax),%eax
  802a81:	66 8b 40 0a          	mov    0xa(%eax),%ax
  802a85:	66 89 02             	mov    %ax,(%edx)
  return ERR_OK;
  802a88:	b0 00                	mov    $0x0,%al
  802a8a:	eb 02                	jmp    802a8e <netbuf_data+0x8c>
  LWIP_ERROR("netbuf_data: invalid buf", (buf != NULL), return ERR_ARG;);
  LWIP_ERROR("netbuf_data: invalid dataptr", (dataptr != NULL), return ERR_ARG;);
  LWIP_ERROR("netbuf_data: invalid len", (len != NULL), return ERR_ARG;);

  if (buf->ptr == NULL) {
    return ERR_BUF;
  802a8c:	b0 fe                	mov    $0xfe,%al
  }
  *dataptr = buf->ptr->payload;
  *len = buf->ptr->len;
  return ERR_OK;
}
  802a8e:	83 c4 14             	add    $0x14,%esp
  802a91:	5b                   	pop    %ebx
  802a92:	5d                   	pop    %ebp
  802a93:	c3                   	ret    

00802a94 <netbuf_next>:
 *         1  if moved to the next part but now there is no next part
 *         0  if moved to the next part and there are still more parts
 */
s8_t
netbuf_next(struct netbuf *buf)
{
  802a94:	55                   	push   %ebp
  802a95:	89 e5                	mov    %esp,%ebp
  802a97:	83 ec 18             	sub    $0x18,%esp
  802a9a:	8b 45 08             	mov    0x8(%ebp),%eax
  LWIP_ERROR("netbuf_free: invalid buf", (buf != NULL), return -1;);
  802a9d:	85 c0                	test   %eax,%eax
  802a9f:	75 1c                	jne    802abd <netbuf_next+0x29>
  802aa1:	c7 44 24 08 39 1d 81 	movl   $0x811d39,0x8(%esp)
  802aa8:	00 
  802aa9:	c7 44 24 04 d2 00 00 	movl   $0xd2,0x4(%esp)
  802ab0:	00 
  802ab1:	c7 04 24 23 1d 81 00 	movl   $0x811d23,(%esp)
  802ab8:	e8 c3 c3 00 00       	call   80ee80 <_panic>
  if (buf->ptr->next == NULL) {
  802abd:	8b 50 04             	mov    0x4(%eax),%edx
  802ac0:	8b 12                	mov    (%edx),%edx
  802ac2:	85 d2                	test   %edx,%edx
  802ac4:	74 0b                	je     802ad1 <netbuf_next+0x3d>
    return -1;
  }
  buf->ptr = buf->ptr->next;
  802ac6:	89 50 04             	mov    %edx,0x4(%eax)
  if (buf->ptr->next == NULL) {
    return 1;
  }
  return 0;
  802ac9:	83 3a 00             	cmpl   $0x0,(%edx)
  802acc:	0f 94 c0             	sete   %al
  802acf:	eb 02                	jmp    802ad3 <netbuf_next+0x3f>
s8_t
netbuf_next(struct netbuf *buf)
{
  LWIP_ERROR("netbuf_free: invalid buf", (buf != NULL), return -1;);
  if (buf->ptr->next == NULL) {
    return -1;
  802ad1:	b0 ff                	mov    $0xff,%al
  buf->ptr = buf->ptr->next;
  if (buf->ptr->next == NULL) {
    return 1;
  }
  return 0;
}
  802ad3:	c9                   	leave  
  802ad4:	c3                   	ret    

00802ad5 <netbuf_first>:
 *
 * @param buf the netbuf to modify
 */
void
netbuf_first(struct netbuf *buf)
{
  802ad5:	55                   	push   %ebp
  802ad6:	89 e5                	mov    %esp,%ebp
  802ad8:	83 ec 18             	sub    $0x18,%esp
  802adb:	8b 45 08             	mov    0x8(%ebp),%eax
  LWIP_ERROR("netbuf_free: invalid buf", (buf != NULL), return;);
  802ade:	85 c0                	test   %eax,%eax
  802ae0:	75 1c                	jne    802afe <netbuf_first+0x29>
  802ae2:	c7 44 24 08 39 1d 81 	movl   $0x811d39,0x8(%esp)
  802ae9:	00 
  802aea:	c7 44 24 04 e7 00 00 	movl   $0xe7,0x4(%esp)
  802af1:	00 
  802af2:	c7 04 24 23 1d 81 00 	movl   $0x811d23,(%esp)
  802af9:	e8 82 c3 00 00       	call   80ee80 <_panic>
  buf->ptr = buf->p;
  802afe:	8b 10                	mov    (%eax),%edx
  802b00:	89 50 04             	mov    %edx,0x4(%eax)
}
  802b03:	c9                   	leave  
  802b04:	c3                   	ret    
  802b05:	00 00                	add    %al,(%eax)
	...

00802b08 <lwip_init>:
/**
 * Perform Sanity check of user-configurable values, and initialize all modules.
 */
void
lwip_init(void)
{
  802b08:	55                   	push   %ebp
  802b09:	89 e5                	mov    %esp,%ebp
  802b0b:	83 ec 08             	sub    $0x8,%esp
  /* Sanity check user-configurable values */
  lwip_sanity_check();

  /* Modules initialization */
  stats_init();
  sys_init();
  802b0e:	e8 f2 78 00 00       	call   80a405 <sys_init>
  mem_init();
  802b13:	e8 c4 18 00 00       	call   8043dc <mem_init>
  memp_init();
  802b18:	e8 f3 1d 00 00       	call   804910 <memp_init>
  pbuf_init();
  netif_init();
#if LWIP_SOCKET
  lwip_socket_init();
  802b1d:	e8 fe e4 ff ff       	call   801020 <lwip_socket_init>
  igmp_init();
#endif /* LWIP_IGMP */
#if LWIP_DNS
  dns_init();
#endif /* LWIP_DNS */
}
  802b22:	c9                   	leave  
  802b23:	c3                   	ret    

00802b24 <dhcp_set_state>:
 *
 * TODO: we might also want to reset the timeout here?
 */
static void
dhcp_set_state(struct dhcp *dhcp, u8_t new_state)
{
  802b24:	55                   	push   %ebp
  802b25:	89 e5                	mov    %esp,%ebp
  if (new_state != dhcp->state) {
  802b27:	38 10                	cmp    %dl,(%eax)
  802b29:	74 06                	je     802b31 <dhcp_set_state+0xd>
    dhcp->state = new_state;
  802b2b:	88 10                	mov    %dl,(%eax)
    dhcp->tries = 0;
  802b2d:	c6 40 01 00          	movb   $0x0,0x1(%eax)
  }
}
  802b31:	5d                   	pop    %ebp
  802b32:	c3                   	ret    

00802b33 <dhcp_get_option_ptr>:
 *
 * @return a byte offset into the UDP message where the option was found, or
 * zero if the given option was not found.
 */
static u8_t *dhcp_get_option_ptr(struct dhcp *dhcp, u8_t option_type)
{
  802b33:	55                   	push   %ebp
  802b34:	89 e5                	mov    %esp,%ebp
  802b36:	57                   	push   %edi
  802b37:	56                   	push   %esi
  802b38:	53                   	push   %ebx
  802b39:	83 ec 08             	sub    $0x8,%esp
  802b3c:	89 45 ec             	mov    %eax,-0x14(%ebp)
  u8_t overload = DHCP_OVERLOAD_NONE;

  /* options available? */
  if ((dhcp->options_in != NULL) && (dhcp->options_in_len > 0)) {
  802b3f:	8b 70 14             	mov    0x14(%eax),%esi
  802b42:	85 f6                	test   %esi,%esi
  802b44:	0f 84 c5 00 00 00    	je     802c0f <dhcp_get_option_ptr+0xdc>
  802b4a:	8b 78 18             	mov    0x18(%eax),%edi
  802b4d:	66 85 ff             	test   %di,%di
  802b50:	0f 84 c0 00 00 00    	je     802c16 <dhcp_get_option_ptr+0xe3>
    /* start with options field */
    u8_t *options = (u8_t *)dhcp->options_in;
    u16_t offset = 0;
  802b56:	b9 00 00 00 00       	mov    $0x0,%ecx
 * @return a byte offset into the UDP message where the option was found, or
 * zero if the given option was not found.
 */
static u8_t *dhcp_get_option_ptr(struct dhcp *dhcp, u8_t option_type)
{
  u8_t overload = DHCP_OVERLOAD_NONE;
  802b5b:	c6 45 f3 00          	movb   $0x0,-0xd(%ebp)
  802b5f:	eb 2c                	jmp    802b8d <dhcp_get_option_ptr+0x5a>
    u16_t offset = 0;
    /* at least 1 byte to read and no end marker, then at least 3 bytes to read? */
    while ((offset < dhcp->options_in_len) && (options[offset] != DHCP_OPTION_END)) {
      /* LWIP_DEBUGF(DHCP_DEBUG, ("msg_offset=%"U16_F", q->len=%"U16_F, msg_offset, q->len)); */
      /* are the sname and/or file field overloaded with options? */
      if (options[offset] == DHCP_OPTION_OVERLOAD) {
  802b61:	80 fb 34             	cmp    $0x34,%bl
  802b64:	75 11                	jne    802b77 <dhcp_get_option_ptr+0x44>
        LWIP_DEBUGF(DHCP_DEBUG | LWIP_DBG_TRACE | 2, ("overloaded message detected\n"));
        /* skip option type and length */
        offset += 2;
  802b66:	8d 41 02             	lea    0x2(%ecx),%eax
        overload = options[offset++];
  802b69:	0f b7 c0             	movzwl %ax,%eax
  802b6c:	8a 04 06             	mov    (%esi,%eax,1),%al
  802b6f:	88 45 f3             	mov    %al,-0xd(%ebp)
  802b72:	83 c1 03             	add    $0x3,%ecx
  802b75:	eb 16                	jmp    802b8d <dhcp_get_option_ptr+0x5a>
      }
      /* requested option found */
      else if (options[offset] == option_type) {
  802b77:	38 d3                	cmp    %dl,%bl
  802b79:	0f 84 aa 00 00 00    	je     802c29 <dhcp_get_option_ptr+0xf6>
        return &options[offset];
      /* skip option */
      } else {
         LWIP_DEBUGF(DHCP_DEBUG, ("skipping option %"U16_F" in options\n", options[offset]));
        /* skip option type */
        offset++;
  802b7f:	8d 41 01             	lea    0x1(%ecx),%eax
        /* skip option length, and then length bytes */
        offset += 1 + options[offset];
  802b82:	0f b7 c0             	movzwl %ax,%eax
  802b85:	0f b6 04 06          	movzbl (%esi,%eax,1),%eax
  802b89:	8d 4c 01 02          	lea    0x2(%ecx,%eax,1),%ecx
  if ((dhcp->options_in != NULL) && (dhcp->options_in_len > 0)) {
    /* start with options field */
    u8_t *options = (u8_t *)dhcp->options_in;
    u16_t offset = 0;
    /* at least 1 byte to read and no end marker, then at least 3 bytes to read? */
    while ((offset < dhcp->options_in_len) && (options[offset] != DHCP_OPTION_END)) {
  802b8d:	66 39 f9             	cmp    %di,%cx
  802b90:	73 0c                	jae    802b9e <dhcp_get_option_ptr+0x6b>
  802b92:	0f b7 c1             	movzwl %cx,%eax
  802b95:	01 f0                	add    %esi,%eax
  802b97:	8a 18                	mov    (%eax),%bl
  802b99:	80 fb ff             	cmp    $0xff,%bl
  802b9c:	75 c3                	jne    802b61 <dhcp_get_option_ptr+0x2e>
        /* skip option length, and then length bytes */
        offset += 1 + options[offset];
      }
    }
    /* is this an overloaded message? */
    if (overload != DHCP_OVERLOAD_NONE) {
  802b9e:	80 7d f3 00          	cmpb   $0x0,-0xd(%ebp)
  802ba2:	74 79                	je     802c1d <dhcp_get_option_ptr+0xea>
      u16_t field_len;
      if (overload == DHCP_OVERLOAD_FILE) {
  802ba4:	80 7d f3 01          	cmpb   $0x1,-0xd(%ebp)
  802ba8:	75 10                	jne    802bba <dhcp_get_option_ptr+0x87>
        LWIP_DEBUGF(DHCP_DEBUG | LWIP_DBG_TRACE | 1, ("overloaded file field\n"));
        options = (u8_t *)&dhcp->msg_in->file;
  802baa:	8b 45 ec             	mov    -0x14(%ebp),%eax
  802bad:	8b 70 10             	mov    0x10(%eax),%esi
  802bb0:	83 c6 6c             	add    $0x6c,%esi
        field_len = DHCP_FILE_LEN;
  802bb3:	bf 80 00 00 00       	mov    $0x80,%edi
  802bb8:	eb 24                	jmp    802bde <dhcp_get_option_ptr+0xab>
      } else if (overload == DHCP_OVERLOAD_SNAME) {
  802bba:	80 7d f3 02          	cmpb   $0x2,-0xd(%ebp)
  802bbe:	75 10                	jne    802bd0 <dhcp_get_option_ptr+0x9d>
        LWIP_DEBUGF(DHCP_DEBUG | LWIP_DBG_TRACE | 1, ("overloaded sname field\n"));
        options = (u8_t *)&dhcp->msg_in->sname;
  802bc0:	8b 45 ec             	mov    -0x14(%ebp),%eax
  802bc3:	8b 70 10             	mov    0x10(%eax),%esi
  802bc6:	83 c6 2c             	add    $0x2c,%esi
        field_len = DHCP_SNAME_LEN;
  802bc9:	bf 40 00 00 00       	mov    $0x40,%edi
  802bce:	eb 0e                	jmp    802bde <dhcp_get_option_ptr+0xab>
      /* TODO: check if else if () is necessary */
      } else {
        LWIP_DEBUGF(DHCP_DEBUG | LWIP_DBG_TRACE | 1, ("overloaded sname and file field\n"));
        options = (u8_t *)&dhcp->msg_in->sname;
  802bd0:	8b 45 ec             	mov    -0x14(%ebp),%eax
  802bd3:	8b 70 10             	mov    0x10(%eax),%esi
  802bd6:	83 c6 2c             	add    $0x2c,%esi
        field_len = DHCP_FILE_LEN + DHCP_SNAME_LEN;
  802bd9:	bf c0 00 00 00       	mov    $0xc0,%edi
      }
      offset = 0;
  802bde:	b9 00 00 00 00       	mov    $0x0,%ecx

      /* at least 1 byte to read and no end marker */
      while ((offset < field_len) && (options[offset] != DHCP_OPTION_END)) {
  802be3:	eb 12                	jmp    802bf7 <dhcp_get_option_ptr+0xc4>
        if (options[offset] == option_type) {
  802be5:	38 da                	cmp    %bl,%dl
  802be7:	74 40                	je     802c29 <dhcp_get_option_ptr+0xf6>
          return &options[offset];
        /* skip option */
        } else {
          LWIP_DEBUGF(DHCP_DEBUG | LWIP_DBG_TRACE, ("skipping option %"U16_F"\n", options[offset]));
          /* skip option type */
          offset++;
  802be9:	8d 41 01             	lea    0x1(%ecx),%eax
          offset += 1 + options[offset];
  802bec:	0f b7 c0             	movzwl %ax,%eax
  802bef:	0f b6 04 06          	movzbl (%esi,%eax,1),%eax
  802bf3:	8d 4c 01 02          	lea    0x2(%ecx,%eax,1),%ecx
        field_len = DHCP_FILE_LEN + DHCP_SNAME_LEN;
      }
      offset = 0;

      /* at least 1 byte to read and no end marker */
      while ((offset < field_len) && (options[offset] != DHCP_OPTION_END)) {
  802bf7:	66 39 f9             	cmp    %di,%cx
  802bfa:	73 28                	jae    802c24 <dhcp_get_option_ptr+0xf1>
  802bfc:	0f b7 c1             	movzwl %cx,%eax
  802bff:	01 f0                	add    %esi,%eax
  802c01:	8a 18                	mov    (%eax),%bl
  802c03:	80 fb ff             	cmp    $0xff,%bl
  802c06:	75 dd                	jne    802be5 <dhcp_get_option_ptr+0xb2>
          offset += 1 + options[offset];
        }
      }
    }
  }
  return NULL;
